%!PS-Adobe-2.0
%%Title: St19_cmap_xy_calo_0: c
%%Creator: ROOT Version 6.16/00
%%CreationDate: Fri Apr 12 13:44:49 2019
%%Orientation: Landscape
%%DocumentNeededResources: ProcSet (FontSetInit)
%%EndComments
%%BeginProlog
/s {stroke} def /l {lineto} def /m {moveto} def /t {translate} def
/r {rotate} def /rl {roll}  def /R {repeat} def
/d {rlineto} def /rm {rmoveto} def /gr {grestore} def /f {eofill} def
/c {setrgbcolor} def /black {0 setgray} def /sd {setdash} def
/cl {closepath} def /sf {scalefont setfont} def /lw {setlinewidth} def
/box {m dup 0 exch d exch 0 d 0 exch neg d cl} def
/NC{systemdict begin initclip end}def/C{NC box clip newpath}def
/bl {box s} def /bf {gsave box gsave f grestore 1 lw [] 0 sd s grestore} def /Y { 0 exch d} def /X { 0 d} def 
/K {{pop pop 0 moveto} exch kshow} bind def
/ita {/ang 15 def gsave [1 0 ang dup sin exch cos div 1 0 0] concat} def 
/mp {newpath /y exch def /x exch def} def
/side {[w .77 mul w .23 mul] .385 w mul sd w 0 l currentpoint t -144 r} def
/mr {mp x y w2 0 360 arc} def /m24 {mr s} def /m20 {mr f} def
/mb {mp x y w2 add m w2 neg 0 d 0 w neg d w 0 d 0 w d cl} def
/mt {mp x y w2 add m w2 neg w neg d w 0 d cl} def
/w4 {w 4 div} def
/w6 {w 6 div} def
/w8 {w 8 div} def
/m21 {mb f} def /m25 {mb s} def /m22 {mt f} def /m26{mt s} def
/m23 {mp x y w2 sub m w2 w d w neg 0 d cl f} def
/m27 {mp x y w2 add m w3 neg w2 neg d w3 w2 neg d w3 w2 d cl s} def
/m28 {mp x w2 sub y w2 sub w3 add m w3 0 d  0 w3 neg d w3 0 d 0 w3 d w3 0 d  0 w3 d w3 neg 0 d 0 w3 d w3 neg 0 d 0 w3 neg d w3 neg 0 d cl s } def
/m29 {mp gsave x w2 sub y w2 add w3 sub m currentpoint t 4 {side} repeat cl fill gr} def
/m30 {mp gsave x w2 sub y w2 add w3 sub m currentpoint t 4 {side} repeat cl s gr} def
/m31 {mp x y w2 sub m 0 w d x w2 sub y m w 0 d x w2 sub y w2 add m w w neg d x w2 sub y w2 sub m w w d s} def
/m32 {mp x y w2 sub m w2 w d w neg 0 d cl s} def
/m33 {mp x y w2 add m w3 neg w2 neg d w3 w2 neg d w3 w2 d cl f} def
/m34 {mp x w2 sub y w2 sub w3 add m w3 0 d  0 w3 neg d w3 0 d 0 w3 d w3 0 d  0 w3 d w3 neg 0 d 0 w3 d w3 neg 0 d 0 w3 neg d w3 neg 0 d cl f } def
/m35 {mp x y w2 add m w2 neg w2 neg d w2 w2 neg d w2 w2 d w2 neg w2 d x y w2 sub m 0 w d x w2 sub y m w 0 d s} def
/m36 {mb x w2 sub y w2 add m w w neg d x w2 sub y w2 sub m w w d s} def
/m37 {mp x y m w4 neg w2 d w4 neg w2 neg d w2 0 d  w4 neg w2 neg d w2 0 d w4 neg w2 d w2 0 d w4 neg w2 d w4 neg w2 neg d cl s} def
/m38 {mp x w4 sub y w2 add m w4 neg w4 neg d 0 w2 neg d w4 w4 neg d w2 0 d w4 w4 d 0 w2 d w4 neg w4 d w2 neg 0 d x y w2 sub m 0 w d x w2 sub y m w 0 d cl s} def
/m39 {mp x y m w4 neg w2 d w4 neg w2 neg d w2 0 d  w4 neg w2 neg d w2 0 d w4 neg w2 d w2 0 d w4 neg w2 d w4 neg w2 neg d cl f} def
/m40 {mp x y m w4 w2 d w4 w4 neg d w2 neg w4 neg d w2 w4 neg d w4 neg w4 neg d w4 neg w2 d w4 neg w2 neg d w4 neg w4 d w2 w4 d w2 neg w4 d w4 w4 d w4 w2 neg d cl s} def
/m41 {mp x y m w4 w2 d w4 w4 neg d w2 neg w4 neg d w2 w4 neg d w4 neg w4 neg d w4 neg w2 d w4 neg w2 neg d w4 neg w4 d w2 w4 d w2 neg w4 d w4 w4 d w4 w2 neg d cl f} def
/m42 {mp x y w2 add m w8 neg w2 -3 4 div mul d w2 -3 4 div mul w8 neg d w2 3 4 div mul w8 neg d w8 w2 -3 4 div mul d w8 w2 3 4 div mul d w2 3 4 div mul w8 d w2 -3 4 div mul w8 d w8 neg w2 3 4 div mul d cl s} def
/m43 {mp x y w2 add m w8 neg w2 -3 4 div mul d w2 -3 4 div mul w8 neg d w2 3 4 div mul w8 neg d w8 w2 -3 4 div mul d w8 w2 3 4 div mul d w2 3 4 div mul w8 d w2 -3 4 div mul w8 d w8 neg w2 3 4 div mul d cl f} def
/m44 {mp x y m w6 neg w2 d w2 2 3 div mul 0 d w6 neg w2 neg d w2 w6 d 0 w2 -2 3 div mul d w2 neg w6 d w6 w2 neg d w2 -2 3 div mul 0 d w6 w2 d w2 neg w6 neg d 0 w2 2 3 div mul d w2 w6 neg d cl s} def
/m45 {mp x y m w6 neg w2 d w2 2 3 div mul 0 d w6 neg w2 neg d w2 w6 d 0 w2 -2 3 div mul d w2 neg w6 d w6 w2 neg d w2 -2 3 div mul 0 d w6 w2 d w2 neg w6 neg d 0 w2 2 3 div mul d w2 w6 neg d cl f} def
/m46 {mp x y w4 add m w4 neg w4 d w4 neg w4 neg d  w4 w4 neg d w4 neg w4 neg d w4 w4 neg d w4 w4 d w4 w4 neg d w4 w4 d w4 neg w4 d w4 w4 d w4 neg w4 d w4 neg w4 neg d cl s} def
/m47 {mp x y w4 add m w4 neg w4 d w4 neg w4 neg d w4 w4 neg d w4 neg w4 neg d  w4 w4 neg d w4 w4 d w4 w4 neg d w4 w4 d w4 neg w4 d w4 w4 d w4 neg w4 d w4 neg w4 neg d cl f} def
/m48 {mp x y w4 add m w4 neg w4 d w4 neg w4 neg d w4 w4 neg d  w4 neg w4 neg d w4 w4 neg d w4 w4 d w4 w4 neg d w4 w4 d w4 neg w4 d w4 w4 d w4 neg w4 d w4 neg w4 neg d  w4 w4 neg d w4 neg w4 neg d w4 neg w4 d w4 w4 d cl f} def
/m49 {mp x w2 sub w3 add y w2 sub w3 add m  0 w3 neg d w3 0 d 0 w3 d w3 0 d 0 w3 d w3 neg 0 d 0 w3 d w3 neg 0 d 0 w3 neg d w3 neg 0 d 0 w3 neg d w3 0 d 0 w3 d w3 0 d 0 w3 neg d w3 neg 0 d cl f } def
/m2 {mp x y w2 sub m 0 w d x w2 sub y m w 0 d s} def
/m5 {mp x w2 sub y w2 sub m w w d x w2 sub y w2 add m w w neg d s} def
%%IncludeResource: ProcSet (FontSetInit)
%%IncludeResource: font Times-Roman
%%IncludeResource: font Times-Italic
%%IncludeResource: font Times-Bold
%%IncludeResource: font Times-BoldItalic
%%IncludeResource: font Helvetica
%%IncludeResource: font Helvetica-Oblique
%%IncludeResource: font Helvetica-Bold
%%IncludeResource: font Helvetica-BoldOblique
%%IncludeResource: font Courier
%%IncludeResource: font Courier-Oblique
%%IncludeResource: font Courier-Bold
%%IncludeResource: font Courier-BoldOblique
%%IncludeResource: font Symbol
%%IncludeResource: font ZapfDingbats
/reEncode {exch findfont dup length dict begin {1 index /FID eq  {pop pop} {def} ifelse } forall /Encoding exch def currentdict end dup /FontName get exch definefont pop } def [/Times-Bold /Times-Italic /Times-BoldItalic /Helvetica /Helvetica-Oblique
 /Helvetica-Bold /Helvetica-BoldOblique /Courier /Courier-Oblique /Courier-Bold /Courier-BoldOblique /Times-Roman /AvantGarde-Book /AvantGarde-BookOblique /AvantGarde-Demi /AvantGarde-DemiOblique /Bookman-Demi /Bookman-DemiItalic /Bookman-Light
 /Bookman-LightItalic /Helvetica-Narrow /Helvetica-Narrow-Bold /Helvetica-Narrow-BoldOblique /Helvetica-Narrow-Oblique /NewCenturySchlbk-Roman /NewCenturySchlbk-Bold /NewCenturySchlbk-BoldItalic /NewCenturySchlbk-Italic /Palatino-Bold
 /Palatino-BoldItalic /Palatino-Italic /Palatino-Roman ] {ISOLatin1Encoding reEncode } forall/Zone {/iy exch def /ix exch def  ix 1 sub  3144 mul  1 iy sub  2224 mul t} def
%%EndProlog
%%BeginSetup
%%EndSetup
newpath  gsave  90 r 0 -594 t  28 20 t .25 .25 scale  gsave 
%%Page: 1 1
 gsave  gsave 
 1 1 Zone
 gsave  0 0 t black[  ] 0 sd 3 lw 1 1 1 c 2948 1436 0 0 bf black 1 1 1 c 2270 1148 295 144 bf black 2270 1148 295 144 bl 1 1 1 c 0.00759013 0.0728653 0.45351 c 11 9 840 144 bf 12 10 510 202 bf 11 10 545 202 bf 11 10 613 202 bf 11 10 499 231 bf 11 10
 715 231 bf 11 10 806 231 bf 11 10 885 231 bf 12 10 930 231 bf 11 10 1180 231 bf 12 10 669 241 bf 11 10 726 241 bf 11 10 760 241 bf 11 10 806 241 bf 11 10 817 241 bf 11 10 874 241 bf 11 10 976 241 bf 11 10 1112 241 bf 11 9 579 251 bf 11 9 613 251 bf
 11 9 658 251 bf 11 9 681 251 bf 12 9 703 251 bf 11 9 715 251 bf 11 9 726 251 bf 12 9 771 251 bf 11 9 840 251 bf 11 9 851 251 bf 11 9 919 251 bf 11 9 942 251 bf 11 9 987 251 bf 12 10 533 260 bf 12 10 567 260 bf 11 10 579 260 bf 12 10 601 260 bf 11 10
 624 260 bf 12 10 635 260 bf 12 10 669 260 bf 11 10 681 260 bf 12 10 703 260 bf 11 10 715 260 bf 12 10 737 260 bf 11 10 749 260 bf 11 10 760 260 bf 12 10 771 260 bf 12 10 794 260 bf 11 10 806 260 bf 11 10 817 260 bf 12 10 828 260 bf 11 10 840 260 bf
 11 10 874 260 bf 11 10 885 260 bf 12 10 896 260 bf 11 10 908 260 bf 11 10 919 260 bf 11 10 953 260 bf 12 10 998 260 bf 11 10 1010 260 bf 11 10 1044 260 bf 12 10 1055 260 bf 11 10 1067 260 bf 11 10 1112 260 bf 11 10 1135 260 bf 12 10 510 270 bf 12 10
 601 270 bf 11 10 624 270 bf 12 10 635 270 bf 11 10 647 270 bf 12 10 669 270 bf 11 10 681 270 bf 12 10 703 270 bf 11 10 715 270 bf 11 10 726 270 bf 12 10 737 270 bf 11 10 749 270 bf 12 10 771 270 bf 11 10 783 270 bf 11 10 817 270 bf 12 10 828 270 bf
 11 10 840 270 bf 11 10 851 270 bf 11 10 874 270 bf 11 10 885 270 bf 12 10 896 270 bf 11 10 908 270 bf 12 10 964 270 bf 11 10 987 270 bf 11 10 1033 270 bf 11 10 1044 270 bf 11 10 1112 270 bf 11 10 1135 270 bf 11 10 1169 270 bf 11 10 1203 270 bf 12 10
 601 280 bf 11 10 624 280 bf 11 10 647 280 bf 11 10 658 280 bf 12 10 669 280 bf 11 10 681 280 bf 11 10 692 280 bf 12 10 703 280 bf 11 10 715 280 bf 11 10 726 280 bf 12 10 737 280 bf 11 10 749 280 bf 12 10 771 280 bf 11 10 783 280 bf 12 10 794 280 bf
 11 10 806 280 bf 11 10 817 280 bf 11 10 840 280 bf 11 10 851 280 bf 0.0158128 0.151803 0.524225 c 12 10 862 280 bf 0.00759013 0.0728653 0.45351 c 11 10 874 280 bf 11 10 885 280 bf 12 10 896 280 bf 11 10 919 280 bf 12 10 930 280 bf 11 10 942 280 bf
 11 10 953 280 bf 12 10 964 280 bf 11 10 976 280 bf 12 10 998 280 bf 11 10 1010 280 bf 12 10 1021 280 bf 11 10 1033 280 bf 11 10 1067 280 bf 11 10 1078 280 bf 12 10 1123 280 bf 11 10 1214 280 bf 11 9 499 290 bf 11 9 590 290 bf 12 9 601 290 bf 11 9
 624 290 bf 12 9 635 290 bf 11 9 647 290 bf 12 9 669 290 bf 11 9 681 290 bf 0.0158128 0.151803 0.524225 c 11 9 692 290 bf 0.00759013 0.0728653 0.45351 c 12 9 703 290 bf 0.0158128 0.151803 0.524225 c 11 9 715 290 bf 0.00759013 0.0728653 0.45351 c 11 9
 726 290 bf 12 9 737 290 bf 11 9 749 290 bf 11 9 760 290 bf 0.0158128 0.151803 0.524225 c 12 9 771 290 bf 0.00759013 0.0728653 0.45351 c 11 9 783 290 bf 0.0158128 0.151803 0.524225 c 12 9 794 290 bf 11 9 806 290 bf 11 9 817 290 bf 0.00759013
 0.0728653 0.45351 c 12 9 828 290 bf 11 9 840 290 bf 11 9 851 290 bf 12 9 862 290 bf 11 9 874 290 bf 11 9 885 290 bf 12 9 896 290 bf 0.0158128 0.151803 0.524225 c 11 9 908 290 bf 0.00759013 0.0728653 0.45351 c 11 9 919 290 bf 12 9 930 290 bf 11 9 942
 290 bf 11 9 953 290 bf 12 9 964 290 bf 11 9 976 290 bf 11 9 987 290 bf 12 9 998 290 bf 11 9 1010 290 bf 12 9 1021 290 bf 11 9 1044 290 bf 12 9 1055 290 bf 11 9 1067 290 bf 11 9 1135 290 bf 12 9 1157 290 bf 11 9 1180 290 bf 12 9 1191 290 bf 11 9 1237
 290 bf 11 9 1339 290 bf 12 10 567 299 bf 11 10 579 299 bf 12 10 601 299 bf 11 10 613 299 bf 12 10 635 299 bf 11 10 647 299 bf 11 10 658 299 bf 12 10 669 299 bf 11 10 681 299 bf 11 10 692 299 bf 12 10 703 299 bf 0.0158128 0.151803 0.524225 c 11 10
 715 299 bf 11 10 726 299 bf 12 10 737 299 bf 0.0428922 0.365196 0.687255 c 11 10 749 299 bf 0.00759013 0.0728653 0.45351 c 11 10 760 299 bf 0.0281863 0.253431 0.604902 c 12 10 771 299 bf 0.0158128 0.151803 0.524225 c 11 10 783 299 bf 0.00759013
 0.0728653 0.45351 c 12 10 794 299 bf 0.0158128 0.151803 0.524225 c 11 10 806 299 bf 0.0281863 0.253431 0.604902 c 11 10 817 299 bf 0.00759013 0.0728653 0.45351 c 12 10 828 299 bf 0.0281863 0.253431 0.604902 c 11 10 840 299 bf 0.00759013 0.0728653
 0.45351 c 11 10 851 299 bf 0.0158128 0.151803 0.524225 c 12 10 862 299 bf 11 10 874 299 bf 11 10 885 299 bf 0.00759013 0.0728653 0.45351 c 12 10 896 299 bf 11 10 908 299 bf 0.0158128 0.151803 0.524225 c 11 10 919 299 bf 0.00759013 0.0728653 0.45351
 c 12 10 930 299 bf 0.0158128 0.151803 0.524225 c 11 10 942 299 bf 0.00759013 0.0728653 0.45351 c 11 10 953 299 bf 0.0158128 0.151803 0.524225 c 12 10 964 299 bf 0.00759013 0.0728653 0.45351 c 11 10 976 299 bf 0.0158128 0.151803 0.524225 c 11 10 987
 299 bf 0.00759013 0.0728653 0.45351 c 12 10 998 299 bf 11 10 1010 299 bf 12 10 1021 299 bf 11 10 1033 299 bf 11 10 1044 299 bf 12 10 1055 299 bf 11 10 1067 299 bf 11 10 1101 299 bf 11 10 1112 299 bf 12 10 1123 299 bf 11 10 1146 299 bf 12 10 1157 299
 bf 11 10 1169 299 bf 11 10 1180 299 bf 11 10 1203 299 bf 11 10 1214 299 bf 11 10 1237 299 bf 12 10 1248 299 bf 11 10 1294 299 bf 11 10 1362 299 bf 11 10 1396 299 bf 12 10 567 309 bf 11 10 579 309 bf 11 10 590 309 bf 12 10 601 309 bf 11 10 613 309 bf
 11 10 624 309 bf 12 10 635 309 bf 11 10 647 309 bf 0.0158128 0.151803 0.524225 c 11 10 658 309 bf 12 10 669 309 bf 0.00759013 0.0728653 0.45351 c 11 10 681 309 bf 11 10 692 309 bf 12 10 703 309 bf 0.0158128 0.151803 0.524225 c 11 10 715 309 bf
 0.0281863 0.253431 0.604902 c 11 10 726 309 bf 0.00759013 0.0728653 0.45351 c 12 10 737 309 bf 0.0281863 0.253431 0.604902 c 11 10 749 309 bf 0.0158128 0.151803 0.524225 c 11 10 760 309 bf 0.0281863 0.253431 0.604902 c 12 10 771 309 bf 11 10 783 309
 bf 12 10 794 309 bf 11 10 806 309 bf 11 10 817 309 bf 12 10 828 309 bf 0.0158128 0.151803 0.524225 c 11 10 840 309 bf 0.0428922 0.365196 0.687255 c 11 10 851 309 bf 0.0281863 0.253431 0.604902 c 12 10 862 309 bf 0.00759013 0.0728653 0.45351 c 11 10
 874 309 bf 0.0281863 0.253431 0.604902 c 11 10 885 309 bf 12 10 896 309 bf 0.0158128 0.151803 0.524225 c 11 10 908 309 bf 11 10 919 309 bf 12 10 930 309 bf 11 10 942 309 bf 0.0281863 0.253431 0.604902 c 11 10 953 309 bf 0.0158128 0.151803 0.524225 c
 12 10 964 309 bf 0.00759013 0.0728653 0.45351 c 11 10 976 309 bf 0.0158128 0.151803 0.524225 c 11 10 987 309 bf 0.00759013 0.0728653 0.45351 c 12 10 998 309 bf 11 10 1010 309 bf 12 10 1021 309 bf 0.0158128 0.151803 0.524225 c 11 10 1033 309 bf 11 10
 1044 309 bf 0.00759013 0.0728653 0.45351 c 12 10 1055 309 bf 11 10 1067 309 bf 11 10 1078 309 bf 12 10 1089 309 bf 11 10 1101 309 bf 11 10 1112 309 bf 12 10 1123 309 bf 11 10 1135 309 bf 11 10 1146 309 bf 12 10 1157 309 bf 11 10 1169 309 bf 12 10
 1191 309 bf 11 10 1203 309 bf 11 10 1214 309 bf 12 10 1225 309 bf 11 10 1237 309 bf 11 10 1260 309 bf 12 10 1282 309 bf 11 10 1305 309 bf 11 10 1328 309 bf 12 10 1350 309 bf 11 10 1362 309 bf 12 10 1418 309 bf 11 9 579 319 bf 12 9 601 319 bf 11 9
 613 319 bf 11 9 624 319 bf 12 9 635 319 bf 0.0158128 0.151803 0.524225 c 11 9 647 319 bf 11 9 658 319 bf 12 9 669 319 bf 0.00759013 0.0728653 0.45351 c 11 9 681 319 bf 0.0158128 0.151803 0.524225 c 11 9 692 319 bf 12 9 703 319 bf 0.0428922 0.365196
 0.687255 c 11 9 715 319 bf 0.0281863 0.253431 0.604902 c 11 9 726 319 bf 12 9 737 319 bf 0.0428922 0.365196 0.687255 c 11 9 749 319 bf 11 9 760 319 bf 0.0281863 0.253431 0.604902 c 12 9 771 319 bf 0.0428922 0.365196 0.687255 c 11 9 783 319 bf 12 9
 794 319 bf 0.0588235 0.486275 0.776471 c 11 9 806 319 bf 0.0281863 0.253431 0.604902 c 11 9 817 319 bf 0.0428922 0.365196 0.687255 c 12 9 828 319 bf 0.0281863 0.253431 0.604902 c 11 9 840 319 bf 11 9 851 319 bf 12 9 862 319 bf 11 9 874 319 bf 11 9
 885 319 bf 0.0428922 0.365196 0.687255 c 12 9 896 319 bf 0.00759013 0.0728653 0.45351 c 11 9 908 319 bf 0.0281863 0.253431 0.604902 c 11 9 919 319 bf 12 9 930 319 bf 11 9 942 319 bf 11 9 953 319 bf 0.0158128 0.151803 0.524225 c 12 9 964 319 bf
 0.00759013 0.0728653 0.45351 c 11 9 976 319 bf 0.0281863 0.253431 0.604902 c 11 9 987 319 bf 12 9 998 319 bf 11 9 1010 319 bf 12 9 1021 319 bf 0.0158128 0.151803 0.524225 c 11 9 1033 319 bf 11 9 1044 319 bf 0.00759013 0.0728653 0.45351 c 12 9 1055
 319 bf 0.0158128 0.151803 0.524225 c 11 9 1067 319 bf 11 9 1078 319 bf 12 9 1089 319 bf 0.00759013 0.0728653 0.45351 c 11 9 1101 319 bf 11 9 1112 319 bf 12 9 1123 319 bf 11 9 1146 319 bf 12 9 1157 319 bf 11 9 1169 319 bf 11 9 1180 319 bf 12 9 1191
 319 bf 11 9 1214 319 bf 12 9 1225 319 bf 11 9 1237 319 bf 12 9 1248 319 bf 11 9 1294 319 bf 11 9 1305 319 bf 12 9 1316 319 bf 11 9 1328 319 bf 11 9 1339 319 bf 11 9 1362 319 bf 11 9 1373 319 bf 12 9 1475 319 bf 12 10 601 328 bf 11 10 613 328 bf
 0.0158128 0.151803 0.524225 c 11 10 624 328 bf 0.00759013 0.0728653 0.45351 c 12 10 635 328 bf 0.0158128 0.151803 0.524225 c 11 10 647 328 bf 11 10 658 328 bf 0.0281863 0.253431 0.604902 c 12 10 669 328 bf 11 10 681 328 bf 11 10 692 328 bf 12 10 703
 328 bf 0.0428922 0.365196 0.687255 c 11 10 715 328 bf 0.0281863 0.253431 0.604902 c 11 10 726 328 bf 0.0588235 0.486275 0.776471 c 12 10 737 328 bf 0.0428922 0.365196 0.687255 c 11 10 749 328 bf 0.0588235 0.486275 0.776471 c 11 10 760 328 bf
 0.0428922 0.365196 0.687255 c 12 10 771 328 bf 0.0588235 0.486275 0.776471 c 11 10 783 328 bf 0.0428922 0.365196 0.687255 c 12 10 794 328 bf 0.0588235 0.486275 0.776471 c 11 10 806 328 bf 0.0428922 0.365196 0.687255 c 11 10 817 328 bf 12 10 828 328
 bf 0.0588235 0.486275 0.776471 c 11 10 840 328 bf 0.0428922 0.365196 0.687255 c 11 10 851 328 bf 0.0588235 0.486275 0.776471 c 12 10 862 328 bf 11 10 874 328 bf 0.0281863 0.253431 0.604902 c 11 10 885 328 bf 12 10 896 328 bf 11 10 908 328 bf
 0.0588235 0.486275 0.776471 c 11 10 919 328 bf 0.0428922 0.365196 0.687255 c 12 10 930 328 bf 11 10 942 328 bf 0.0281863 0.253431 0.604902 c 11 10 953 328 bf 12 10 964 328 bf 11 10 976 328 bf 11 10 987 328 bf 12 10 998 328 bf 11 10 1010 328 bf 12 10
 1021 328 bf 11 10 1033 328 bf 11 10 1044 328 bf 12 10 1055 328 bf 0.0158128 0.151803 0.524225 c 11 10 1067 328 bf 11 10 1078 328 bf 12 10 1089 328 bf 0.00759013 0.0728653 0.45351 c 11 10 1101 328 bf 0.0158128 0.151803 0.524225 c 11 10 1112 328 bf 12
 10 1123 328 bf 11 10 1135 328 bf 11 10 1146 328 bf 0.00759013 0.0728653 0.45351 c 12 10 1157 328 bf 11 10 1169 328 bf 11 10 1180 328 bf 12 10 1191 328 bf 11 10 1203 328 bf 11 10 1214 328 bf 12 10 1225 328 bf 11 10 1237 328 bf 12 10 1248 328 bf 11 10
 1260 328 bf 11 10 1271 328 bf 12 10 1282 328 bf 11 10 1294 328 bf 11 10 1305 328 bf 11 10 1328 328 bf 12 10 1350 328 bf 11 10 1373 328 bf 11 10 1396 328 bf 11 10 1430 328 bf 12 10 1452 328 bf 11 10 590 338 bf 12 10 601 338 bf 11 10 613 338 bf
 0.0158128 0.151803 0.524225 c 11 10 624 338 bf 0.00759013 0.0728653 0.45351 c 12 10 635 338 bf 0.0158128 0.151803 0.524225 c 11 10 647 338 bf 0.0281863 0.253431 0.604902 c 11 10 658 338 bf 0.0428922 0.365196 0.687255 c 12 10 669 338 bf 0.0281863
 0.253431 0.604902 c 11 10 681 338 bf 11 10 692 338 bf 12 10 703 338 bf 0.122549 0.702941 0.786029 c 11 10 715 338 bf 0.0588235 0.486275 0.776471 c 11 10 726 338 bf 0.122549 0.702941 0.786029 c 12 10 737 338 bf 0.0588235 0.486275 0.776471 c 11 10 749
 338 bf 11 10 760 338 bf 0.0906863 0.594608 0.78125 c 12 10 771 338 bf 0.0588235 0.486275 0.776471 c 11 10 783 338 bf 0.0906863 0.594608 0.78125 c 12 10 794 338 bf 11 10 806 338 bf 0.0588235 0.486275 0.776471 c 11 10 817 338 bf 12 10 828 338 bf
 0.0428922 0.365196 0.687255 c 11 10 840 338 bf 11 10 851 338 bf 0.0906863 0.594608 0.78125 c 12 10 862 338 bf 0.0588235 0.486275 0.776471 c 11 10 874 338 bf 11 10 885 338 bf 0.0428922 0.365196 0.687255 c 12 10 896 338 bf 0.0281863 0.253431 0.604902
 c 11 10 908 338 bf 0.0428922 0.365196 0.687255 c 11 10 919 338 bf 0.0588235 0.486275 0.776471 c 12 10 930 338 bf 0.0428922 0.365196 0.687255 c 11 10 942 338 bf 11 10 953 338 bf 0.0588235 0.486275 0.776471 c 12 10 964 338 bf 11 10 976 338 bf 11 10
 987 338 bf 0.0428922 0.365196 0.687255 c 12 10 998 338 bf 0.0281863 0.253431 0.604902 c 11 10 1010 338 bf 0.0158128 0.151803 0.524225 c 12 10 1021 338 bf 0.0281863 0.253431 0.604902 c 11 10 1033 338 bf 0.0158128 0.151803 0.524225 c 11 10 1044 338 bf
 0.0281863 0.253431 0.604902 c 12 10 1055 338 bf 11 10 1067 338 bf 11 10 1078 338 bf 12 10 1089 338 bf 0.0158128 0.151803 0.524225 c 11 10 1101 338 bf 11 10 1112 338 bf 0.0281863 0.253431 0.604902 c 12 10 1123 338 bf 0.0158128 0.151803 0.524225 c 11
 10 1135 338 bf 11 10 1146 338 bf 0.0281863 0.253431 0.604902 c 12 10 1157 338 bf 0.00759013 0.0728653 0.45351 c 11 10 1169 338 bf 11 10 1180 338 bf 0.0158128 0.151803 0.524225 c 12 10 1191 338 bf 0.00759013 0.0728653 0.45351 c 11 10 1203 338 bf 11
 10 1214 338 bf 11 10 1237 338 bf 0.0158128 0.151803 0.524225 c 12 10 1248 338 bf 0.00759013 0.0728653 0.45351 c 11 10 1260 338 bf 11 10 1271 338 bf 12 10 1282 338 bf 11 10 1294 338 bf 11 10 1328 338 bf 11 10 1339 338 bf 12 10 1350 338 bf 11 10 1362
 338 bf 11 10 1373 338 bf 11 10 1407 338 bf 12 10 1418 338 bf 11 10 1430 338 bf 11 10 1441 338 bf 12 10 1452 338 bf 11 10 1464 338 bf 11 10 1623 338 bf 12 10 567 348 bf 11 10 590 348 bf 12 10 601 348 bf 0.0158128 0.151803 0.524225 c 11 10 613 348 bf
 11 10 624 348 bf 0.0281863 0.253431 0.604902 c 12 10 635 348 bf 0.0158128 0.151803 0.524225 c 11 10 647 348 bf 0.0428922 0.365196 0.687255 c 11 10 658 348 bf 12 10 669 348 bf 0.0588235 0.486275 0.776471 c 11 10 681 348 bf 11 10 692 348 bf 12 10 703
 348 bf 0.0906863 0.594608 0.78125 c 11 10 715 348 bf 11 10 726 348 bf 0.122549 0.702941 0.786029 c 12 10 737 348 bf 0.0588235 0.486275 0.776471 c 11 10 749 348 bf 11 10 760 348 bf 12 10 771 348 bf 11 10 783 348 bf 0.0906863 0.594608 0.78125 c 12 10
 794 348 bf 11 10 806 348 bf 11 10 817 348 bf 12 10 828 348 bf 11 10 840 348 bf 0.0588235 0.486275 0.776471 c 11 10 851 348 bf 0.0906863 0.594608 0.78125 c 12 10 862 348 bf 11 10 874 348 bf 11 10 885 348 bf 0.122549 0.702941 0.786029 c 12 10 896 348
 bf 0.0906863 0.594608 0.78125 c 11 10 908 348 bf 11 10 919 348 bf 0.0588235 0.486275 0.776471 c 12 10 930 348 bf 11 10 942 348 bf 0.122549 0.702941 0.786029 c 11 10 953 348 bf 0.0588235 0.486275 0.776471 c 12 10 964 348 bf 11 10 976 348 bf 0.0428922
 0.365196 0.687255 c 11 10 987 348 bf 0.0588235 0.486275 0.776471 c 12 10 998 348 bf 11 10 1010 348 bf 12 10 1021 348 bf 0.0428922 0.365196 0.687255 c 11 10 1033 348 bf 0.0281863 0.253431 0.604902 c 11 10 1044 348 bf 0.0428922 0.365196 0.687255 c 12
 10 1055 348 bf 0.0158128 0.151803 0.524225 c 11 10 1067 348 bf 0.0281863 0.253431 0.604902 c 11 10 1078 348 bf 0.0158128 0.151803 0.524225 c 12 10 1089 348 bf 0.0428922 0.365196 0.687255 c 11 10 1101 348 bf 0.0281863 0.253431 0.604902 c 11 10 1112
 348 bf 12 10 1123 348 bf 0.0158128 0.151803 0.524225 c 11 10 1135 348 bf 11 10 1146 348 bf 0.0281863 0.253431 0.604902 c 12 10 1157 348 bf 0.0158128 0.151803 0.524225 c 11 10 1169 348 bf 11 10 1180 348 bf 12 10 1191 348 bf 11 10 1203 348 bf 11 10
 1214 348 bf 12 10 1225 348 bf 0.00759013 0.0728653 0.45351 c 11 10 1237 348 bf 0.0158128 0.151803 0.524225 c 12 10 1248 348 bf 0.00759013 0.0728653 0.45351 c 11 10 1260 348 bf 11 10 1271 348 bf 12 10 1282 348 bf 11 10 1294 348 bf 11 10 1305 348 bf
 12 10 1316 348 bf 11 10 1328 348 bf 11 10 1339 348 bf 12 10 1350 348 bf 11 10 1362 348 bf 11 10 1373 348 bf 12 10 1384 348 bf 11 10 1396 348 bf 11 10 1407 348 bf 12 10 1418 348 bf 11 10 1430 348 bf 11 10 1441 348 bf 12 10 1509 348 bf 11 9 590 358 bf
 12 9 601 358 bf 0.0158128 0.151803 0.524225 c 11 9 613 358 bf 11 9 624 358 bf 0.0428922 0.365196 0.687255 c 12 9 635 358 bf 11 9 647 358 bf 11 9 658 358 bf 12 9 669 358 bf 0.0588235 0.486275 0.776471 c 11 9 681 358 bf 11 9 692 358 bf 0.122549
 0.702941 0.786029 c 12 9 703 358 bf 11 9 715 358 bf 0.0906863 0.594608 0.78125 c 11 9 726 358 bf 12 9 737 358 bf 0.122549 0.702941 0.786029 c 11 9 749 358 bf 11 9 760 358 bf 12 9 771 358 bf 0.18652 0.763235 0.706618 c 11 9 783 358 bf 0.0906863
 0.594608 0.78125 c 12 9 794 358 bf 11 9 806 358 bf 11 9 817 358 bf 0.122549 0.702941 0.786029 c 12 9 828 358 bf 0.18652 0.763235 0.706618 c 11 9 840 358 bf 0.122549 0.702941 0.786029 c 11 9 851 358 bf 0.0588235 0.486275 0.776471 c 12 9 862 358 bf
 0.122549 0.702941 0.786029 c 11 9 874 358 bf 11 9 885 358 bf 0.0906863 0.594608 0.78125 c 12 9 896 358 bf 11 9 908 358 bf 11 9 919 358 bf 0.0588235 0.486275 0.776471 c 12 9 930 358 bf 11 9 942 358 bf 0.0428922 0.365196 0.687255 c 11 9 953 358 bf
 0.0906863 0.594608 0.78125 c 12 9 964 358 bf 0.0588235 0.486275 0.776471 c 11 9 976 358 bf 0.122549 0.702941 0.786029 c 11 9 987 358 bf 0.0428922 0.365196 0.687255 c 12 9 998 358 bf 0.0906863 0.594608 0.78125 c 11 9 1010 358 bf 12 9 1021 358 bf
 0.0588235 0.486275 0.776471 c 11 9 1033 358 bf 0.0428922 0.365196 0.687255 c 11 9 1044 358 bf 0.0588235 0.486275 0.776471 c 12 9 1055 358 bf 11 9 1067 358 bf 11 9 1078 358 bf 0.0428922 0.365196 0.687255 c 12 9 1089 358 bf 11 9 1101 358 bf 0.0281863
 0.253431 0.604902 c 11 9 1112 358 bf 12 9 1123 358 bf 0.0428922 0.365196 0.687255 c 11 9 1135 358 bf 0.0281863 0.253431 0.604902 c 11 9 1146 358 bf 0.0158128 0.151803 0.524225 c 12 9 1157 358 bf 11 9 1169 358 bf 0.0428922 0.365196 0.687255 c 11 9
 1180 358 bf 0.0281863 0.253431 0.604902 c 12 9 1191 358 bf 0.0428922 0.365196 0.687255 c 11 9 1203 358 bf 0.0158128 0.151803 0.524225 c 11 9 1214 358 bf 12 9 1225 358 bf 11 9 1237 358 bf 12 9 1248 358 bf 11 9 1260 358 bf 0.00759013 0.0728653 0.45351
 c 11 9 1271 358 bf 0.0158128 0.151803 0.524225 c 12 9 1282 358 bf 0.00759013 0.0728653 0.45351 c 11 9 1294 358 bf 11 9 1305 358 bf 12 9 1316 358 bf 11 9 1328 358 bf 11 9 1339 358 bf 0.0158128 0.151803 0.524225 c 12 9 1350 358 bf 0.00759013 0.0728653
 0.45351 c 11 9 1362 358 bf 11 9 1373 358 bf 12 9 1384 358 bf 0.0158128 0.151803 0.524225 c 11 9 1396 358 bf 0.00759013 0.0728653 0.45351 c 12 9 1418 358 bf 11 9 1430 358 bf 11 9 1441 358 bf 11 9 1464 358 bf 12 9 1475 358 bf 11 9 1487 358 bf 11 9
 1498 358 bf 11 9 1521 358 bf 11 9 1532 358 bf 11 9 1555 358 bf 11 9 1566 358 bf 11 9 1589 358 bf 11 9 1600 358 bf 11 10 590 367 bf 0.0158128 0.151803 0.524225 c 12 10 601 367 bf 11 10 613 367 bf 11 10 624 367 bf 0.0281863 0.253431 0.604902 c 12 10
 635 367 bf 0.0588235 0.486275 0.776471 c 11 10 647 367 bf 0.0428922 0.365196 0.687255 c 11 10 658 367 bf 0.0588235 0.486275 0.776471 c 12 10 669 367 bf 11 10 681 367 bf 11 10 692 367 bf 0.122549 0.702941 0.786029 c 12 10 703 367 bf 11 10 715 367 bf
 0.0588235 0.486275 0.776471 c 11 10 726 367 bf 0.18652 0.763235 0.706618 c 12 10 737 367 bf 0.0906863 0.594608 0.78125 c 11 10 749 367 bf 0.4 0.807843 0.352941 c 11 10 760 367 bf 0.122549 0.702941 0.786029 c 12 10 771 367 bf 0.18652 0.763235
 0.706618 c 11 10 783 367 bf 0.0906863 0.594608 0.78125 c 12 10 794 367 bf 0.122549 0.702941 0.786029 c 11 10 806 367 bf 11 10 817 367 bf 12 10 828 367 bf 11 10 840 367 bf 11 10 851 367 bf 12 10 862 367 bf 0.18652 0.763235 0.706618 c 11 10 874 367 bf
 11 10 885 367 bf 0.0588235 0.486275 0.776471 c 12 10 896 367 bf 11 10 908 367 bf 0.29326 0.785539 0.529779 c 11 10 919 367 bf 12 10 930 367 bf 0.122549 0.702941 0.786029 c 11 10 942 367 bf 0.0588235 0.486275 0.776471 c 11 10 953 367 bf 0.0906863
 0.594608 0.78125 c 12 10 964 367 bf 0.122549 0.702941 0.786029 c 11 10 976 367 bf 0.18652 0.763235 0.706618 c 11 10 987 367 bf 0.0906863 0.594608 0.78125 c 12 10 998 367 bf 0.122549 0.702941 0.786029 c 11 10 1010 367 bf 0.29326 0.785539 0.529779 c
 12 10 1021 367 bf 11 10 1033 367 bf 0.0906863 0.594608 0.78125 c 11 10 1044 367 bf 12 10 1055 367 bf 0.122549 0.702941 0.786029 c 11 10 1067 367 bf 0.0428922 0.365196 0.687255 c 11 10 1078 367 bf 0.0588235 0.486275 0.776471 c 12 10 1089 367 bf 11 10
 1101 367 bf 0.0428922 0.365196 0.687255 c 11 10 1112 367 bf 0.0588235 0.486275 0.776471 c 12 10 1123 367 bf 0.0281863 0.253431 0.604902 c 11 10 1135 367 bf 0.0428922 0.365196 0.687255 c 11 10 1146 367 bf 0.0281863 0.253431 0.604902 c 12 10 1157 367
 bf 11 10 1169 367 bf 11 10 1180 367 bf 0.0158128 0.151803 0.524225 c 12 10 1191 367 bf 0.0428922 0.365196 0.687255 c 11 10 1203 367 bf 0.0281863 0.253431 0.604902 c 11 10 1214 367 bf 12 10 1225 367 bf 11 10 1237 367 bf 12 10 1248 367 bf 11 10 1260
 367 bf 11 10 1271 367 bf 0.0158128 0.151803 0.524225 c 12 10 1282 367 bf 11 10 1294 367 bf 11 10 1305 367 bf 12 10 1316 367 bf 0.00759013 0.0728653 0.45351 c 11 10 1328 367 bf 11 10 1339 367 bf 0.0158128 0.151803 0.524225 c 12 10 1350 367 bf 11 10
 1362 367 bf 11 10 1373 367 bf 0.00759013 0.0728653 0.45351 c 12 10 1384 367 bf 0.0158128 0.151803 0.524225 c 11 10 1396 367 bf 11 10 1407 367 bf 0.00759013 0.0728653 0.45351 c 12 10 1418 367 bf 11 10 1430 367 bf 11 10 1441 367 bf 12 10 1452 367 bf
 11 10 1464 367 bf 12 10 1475 367 bf 11 10 1487 367 bf 12 10 1509 367 bf 11 10 1521 367 bf 12 10 1543 367 bf 11 10 1555 367 bf 11 10 1566 367 bf 11 10 1600 367 bf 12 10 1611 367 bf 11 10 1623 367 bf 11 10 579 377 bf 11 10 590 377 bf 12 10 601 377 bf
 0.0158128 0.151803 0.524225 c 11 10 613 377 bf 0.0281863 0.253431 0.604902 c 11 10 624 377 bf 0.0428922 0.365196 0.687255 c 12 10 635 377 bf 11 10 647 377 bf 0.0588235 0.486275 0.776471 c 11 10 658 377 bf 12 10 669 377 bf 11 10 681 377 bf 0.122549
 0.702941 0.786029 c 11 10 692 377 bf 12 10 703 377 bf 0.29326 0.785539 0.529779 c 11 10 715 377 bf 0.122549 0.702941 0.786029 c 11 10 726 377 bf 12 10 737 377 bf 11 10 749 377 bf 0.18652 0.763235 0.706618 c 11 10 760 377 bf 12 10 771 377 bf 0.4
 0.807843 0.352941 c 11 10 783 377 bf 0.18652 0.763235 0.706618 c 12 10 794 377 bf 0.29326 0.785539 0.529779 c 11 10 806 377 bf 0.4 0.807843 0.352941 c 11 10 817 377 bf 0.29326 0.785539 0.529779 c 12 10 828 377 bf 0.4 0.807843 0.352941 c 11 10 840
 377 bf 0.18652 0.763235 0.706618 c 11 10 851 377 bf 0.0906863 0.594608 0.78125 c 12 10 862 377 bf 0.29326 0.785539 0.529779 c 11 10 874 377 bf 0.18652 0.763235 0.706618 c 11 10 885 377 bf 0.29326 0.785539 0.529779 c 12 10 896 377 bf 11 10 908 377 bf
 0.122549 0.702941 0.786029 c 11 10 919 377 bf 0.29326 0.785539 0.529779 c 12 10 930 377 bf 11 10 942 377 bf 0.122549 0.702941 0.786029 c 11 10 953 377 bf 12 10 964 377 bf 11 10 976 377 bf 0.18652 0.763235 0.706618 c 11 10 987 377 bf 0.122549
 0.702941 0.786029 c 12 10 998 377 bf 0.549755 0.839706 0.244608 c 11 10 1010 377 bf 0.122549 0.702941 0.786029 c 12 10 1021 377 bf 0.29326 0.785539 0.529779 c 11 10 1033 377 bf 0.18652 0.763235 0.706618 c 11 10 1044 377 bf 0.0906863 0.594608 0.78125
 c 12 10 1055 377 bf 0.122549 0.702941 0.786029 c 11 10 1067 377 bf 0.0906863 0.594608 0.78125 c 11 10 1078 377 bf 0.0588235 0.486275 0.776471 c 12 10 1089 377 bf 11 10 1101 377 bf 0.122549 0.702941 0.786029 c 11 10 1112 377 bf 12 10 1123 377 bf 11
 10 1135 377 bf 0.0906863 0.594608 0.78125 c 11 10 1146 377 bf 0.0588235 0.486275 0.776471 c 12 10 1157 377 bf 0.0906863 0.594608 0.78125 c 11 10 1169 377 bf 0.0428922 0.365196 0.687255 c 11 10 1180 377 bf 0.0588235 0.486275 0.776471 c 12 10 1191 377
 bf 0.0428922 0.365196 0.687255 c 11 10 1203 377 bf 11 10 1214 377 bf 12 10 1225 377 bf 11 10 1237 377 bf 12 10 1248 377 bf 0.0281863 0.253431 0.604902 c 11 10 1260 377 bf 11 10 1271 377 bf 0.0158128 0.151803 0.524225 c 12 10 1282 377 bf 0.0281863
 0.253431 0.604902 c 11 10 1294 377 bf 0.0158128 0.151803 0.524225 c 11 10 1305 377 bf 0.0281863 0.253431 0.604902 c 12 10 1316 377 bf 11 10 1328 377 bf 0.0158128 0.151803 0.524225 c 11 10 1339 377 bf 0.0281863 0.253431 0.604902 c 12 10 1350 377 bf
 11 10 1362 377 bf 0.0428922 0.365196 0.687255 c 11 10 1373 377 bf 0.0158128 0.151803 0.524225 c 12 10 1384 377 bf 11 10 1396 377 bf 11 10 1407 377 bf 12 10 1418 377 bf 0.0281863 0.253431 0.604902 c 11 10 1430 377 bf 0.0158128 0.151803 0.524225 c 11
 10 1441 377 bf 12 10 1452 377 bf 11 10 1464 377 bf 0.00759013 0.0728653 0.45351 c 12 10 1475 377 bf 11 10 1487 377 bf 0.0158128 0.151803 0.524225 c 11 10 1498 377 bf 0.00759013 0.0728653 0.45351 c 12 10 1509 377 bf 0.0158128 0.151803 0.524225 c 11
 10 1521 377 bf 11 10 1532 377 bf 0.00759013 0.0728653 0.45351 c 12 10 1543 377 bf 11 10 1555 377 bf 11 10 1566 377 bf 0.0158128 0.151803 0.524225 c 12 10 1577 377 bf 0.00759013 0.0728653 0.45351 c 11 10 1589 377 bf 11 10 1600 377 bf 12 10 1611 377
 bf 11 10 1634 377 bf 11 10 1668 377 bf 11 10 590 387 bf 0.0158128 0.151803 0.524225 c 12 10 601 387 bf 11 10 613 387 bf 11 10 624 387 bf 0.0428922 0.365196 0.687255 c 12 10 635 387 bf 0.0588235 0.486275 0.776471 c 11 10 647 387 bf 0.0428922 0.365196
 0.687255 c 11 10 658 387 bf 12 10 669 387 bf 0.0588235 0.486275 0.776471 c 11 10 681 387 bf 0.0906863 0.594608 0.78125 c 11 10 692 387 bf 0.122549 0.702941 0.786029 c 12 10 703 387 bf 0.0906863 0.594608 0.78125 c 11 10 715 387 bf 11 10 726 387 bf
 0.18652 0.763235 0.706618 c 12 10 737 387 bf 0.0906863 0.594608 0.78125 c 11 10 749 387 bf 0.122549 0.702941 0.786029 c 11 10 760 387 bf 0.18652 0.763235 0.706618 c 12 10 771 387 bf 0.29326 0.785539 0.529779 c 11 10 783 387 bf 0.18652 0.763235
 0.706618 c 12 10 794 387 bf 11 10 806 387 bf 0.29326 0.785539 0.529779 c 11 10 817 387 bf 0.4 0.807843 0.352941 c 12 10 828 387 bf 0.549755 0.839706 0.244608 c 11 10 840 387 bf 0.4 0.807843 0.352941 c 11 10 851 387 bf 0.29326 0.785539 0.529779 c 12
 10 862 387 bf 11 10 874 387 bf 11 10 885 387 bf 0.4 0.807843 0.352941 c 12 10 896 387 bf 11 10 908 387 bf 0.18652 0.763235 0.706618 c 11 10 919 387 bf 0.29326 0.785539 0.529779 c 12 10 930 387 bf 0.18652 0.763235 0.706618 c 11 10 942 387 bf 0.122549
 0.702941 0.786029 c 11 10 953 387 bf 0.796569 0.585907 0.0653186 c 12 10 964 387 bf 0.29326 0.785539 0.529779 c 11 10 976 387 bf 11 10 987 387 bf 0.549755 0.839706 0.244608 c 12 10 998 387 bf 0.29326 0.785539 0.529779 c 11 10 1010 387 bf 0.122549
 0.702941 0.786029 c 12 10 1021 387 bf 0.29326 0.785539 0.529779 c 11 10 1033 387 bf 0.122549 0.702941 0.786029 c 11 10 1044 387 bf 0.29326 0.785539 0.529779 c 12 10 1055 387 bf 11 10 1067 387 bf 0.18652 0.763235 0.706618 c 11 10 1078 387 bf 12 10
 1089 387 bf 0.122549 0.702941 0.786029 c 11 10 1101 387 bf 0.18652 0.763235 0.706618 c 11 10 1112 387 bf 12 10 1123 387 bf 0.0906863 0.594608 0.78125 c 11 10 1135 387 bf 0.122549 0.702941 0.786029 c 11 10 1146 387 bf 12 10 1157 387 bf 0.29326
 0.785539 0.529779 c 11 10 1169 387 bf 0.122549 0.702941 0.786029 c 11 10 1180 387 bf 0.0588235 0.486275 0.776471 c 12 10 1191 387 bf 11 10 1203 387 bf 11 10 1214 387 bf 12 10 1225 387 bf 0.0428922 0.365196 0.687255 c 11 10 1237 387 bf 0.122549
 0.702941 0.786029 c 12 10 1248 387 bf 0.0906863 0.594608 0.78125 c 11 10 1260 387 bf 0.0428922 0.365196 0.687255 c 11 10 1271 387 bf 0.0906863 0.594608 0.78125 c 12 10 1282 387 bf 0.0428922 0.365196 0.687255 c 11 10 1294 387 bf 0.0588235 0.486275
 0.776471 c 11 10 1305 387 bf 0.0428922 0.365196 0.687255 c 12 10 1316 387 bf 11 10 1328 387 bf 11 10 1339 387 bf 0.0281863 0.253431 0.604902 c 12 10 1350 387 bf 11 10 1362 387 bf 11 10 1373 387 bf 12 10 1384 387 bf 0.0428922 0.365196 0.687255 c 11
 10 1396 387 bf 0.0158128 0.151803 0.524225 c 11 10 1407 387 bf 0.0281863 0.253431 0.604902 c 12 10 1418 387 bf 11 10 1430 387 bf 11 10 1441 387 bf 0.0158128 0.151803 0.524225 c 12 10 1452 387 bf 11 10 1464 387 bf 12 10 1475 387 bf 0.0281863 0.253431
 0.604902 c 11 10 1487 387 bf 0.0158128 0.151803 0.524225 c 11 10 1498 387 bf 12 10 1509 387 bf 11 10 1521 387 bf 0.00759013 0.0728653 0.45351 c 11 10 1532 387 bf 12 10 1543 387 bf 0.0158128 0.151803 0.524225 c 11 10 1555 387 bf 11 10 1566 387 bf
 0.00759013 0.0728653 0.45351 c 12 10 1577 387 bf 11 10 1589 387 bf 11 10 1600 387 bf 12 10 1611 387 bf 11 10 1623 387 bf 12 10 1645 387 bf 11 10 1668 387 bf 12 10 1679 387 bf 11 10 1691 387 bf 11 9 579 397 bf 11 9 590 397 bf 0.0158128 0.151803
 0.524225 c 12 9 601 397 bf 0.0281863 0.253431 0.604902 c 11 9 613 397 bf 0.0158128 0.151803 0.524225 c 11 9 624 397 bf 0.0281863 0.253431 0.604902 c 12 9 635 397 bf 11 9 647 397 bf 0.0428922 0.365196 0.687255 c 11 9 658 397 bf 0.122549 0.702941
 0.786029 c 12 9 669 397 bf 11 9 681 397 bf 0.0906863 0.594608 0.78125 c 11 9 692 397 bf 0.29326 0.785539 0.529779 c 12 9 703 397 bf 0.122549 0.702941 0.786029 c 11 9 715 397 bf 11 9 726 397 bf 0.29326 0.785539 0.529779 c 12 9 737 397 bf 0.18652
 0.763235 0.706618 c 11 9 749 397 bf 11 9 760 397 bf 0.4 0.807843 0.352941 c 12 9 771 397 bf 11 9 783 397 bf 0.549755 0.839706 0.244608 c 12 9 794 397 bf 0.68799 0.869118 0.144608 c 11 9 806 397 bf 0.29326 0.785539 0.529779 c 11 9 817 397 bf 12 9 828
 397 bf 0.4 0.807843 0.352941 c 11 9 840 397 bf 0.549755 0.839706 0.244608 c 11 9 851 397 bf 0.29326 0.785539 0.529779 c 12 9 862 397 bf 0.4 0.807843 0.352941 c 11 9 874 397 bf 0.68799 0.869118 0.144608 c 11 9 885 397 bf 12 9 896 397 bf 0.549755
 0.839706 0.244608 c 11 9 908 397 bf 11 9 919 397 bf 0.68799 0.869118 0.144608 c 12 9 930 397 bf 0.777451 0.791422 0.0796569 c 11 9 942 397 bf 0.4 0.807843 0.352941 c 11 9 953 397 bf 0.777451 0.791422 0.0796569 c 12 9 964 397 bf 0.29326 0.785539
 0.529779 c 11 9 976 397 bf 0.549755 0.839706 0.244608 c 11 9 987 397 bf 12 9 998 397 bf 11 9 1010 397 bf 12 9 1021 397 bf 11 9 1033 397 bf 0.777451 0.791422 0.0796569 c 11 9 1044 397 bf 0.29326 0.785539 0.529779 c 12 9 1055 397 bf 0.549755 0.839706
 0.244608 c 11 9 1067 397 bf 0.29326 0.785539 0.529779 c 11 9 1078 397 bf 0.18652 0.763235 0.706618 c 12 9 1089 397 bf 0.549755 0.839706 0.244608 c 11 9 1101 397 bf 0.29326 0.785539 0.529779 c 11 9 1112 397 bf 12 9 1123 397 bf 0.549755 0.839706
 0.244608 c 11 9 1135 397 bf 0.4 0.807843 0.352941 c 11 9 1146 397 bf 0.122549 0.702941 0.786029 c 12 9 1157 397 bf 0.18652 0.763235 0.706618 c 11 9 1169 397 bf 11 9 1180 397 bf 0.29326 0.785539 0.529779 c 12 9 1191 397 bf 0.18652 0.763235 0.706618 c
 11 9 1203 397 bf 11 9 1214 397 bf 0.29326 0.785539 0.529779 c 12 9 1225 397 bf 0.18652 0.763235 0.706618 c 11 9 1237 397 bf 0.122549 0.702941 0.786029 c 12 9 1248 397 bf 0.18652 0.763235 0.706618 c 11 9 1260 397 bf 0.0588235 0.486275 0.776471 c 11 9
 1271 397 bf 12 9 1282 397 bf 11 9 1294 397 bf 0.0906863 0.594608 0.78125 c 11 9 1305 397 bf 12 9 1316 397 bf 11 9 1328 397 bf 0.0588235 0.486275 0.776471 c 11 9 1339 397 bf 0.0428922 0.365196 0.687255 c 12 9 1350 397 bf 0.0588235 0.486275 0.776471 c
 11 9 1362 397 bf 11 9 1373 397 bf 12 9 1384 397 bf 0.0281863 0.253431 0.604902 c 11 9 1396 397 bf 0.0428922 0.365196 0.687255 c 11 9 1407 397 bf 12 9 1418 397 bf 11 9 1430 397 bf 0.0281863 0.253431 0.604902 c 11 9 1441 397 bf 0.0588235 0.486275
 0.776471 c 12 9 1452 397 bf 0.0281863 0.253431 0.604902 c 11 9 1464 397 bf 0.0428922 0.365196 0.687255 c 12 9 1475 397 bf 11 9 1487 397 bf 0.0281863 0.253431 0.604902 c 11 9 1498 397 bf 12 9 1509 397 bf 11 9 1521 397 bf 0.0158128 0.151803 0.524225 c
 11 9 1532 397 bf 12 9 1543 397 bf 0.0281863 0.253431 0.604902 c 11 9 1555 397 bf 11 9 1566 397 bf 0.00759013 0.0728653 0.45351 c 12 9 1577 397 bf 0.0281863 0.253431 0.604902 c 11 9 1589 397 bf 0.0158128 0.151803 0.524225 c 11 9 1600 397 bf
 0.00759013 0.0728653 0.45351 c 12 9 1611 397 bf 0.0158128 0.151803 0.524225 c 11 9 1623 397 bf 11 9 1634 397 bf 12 9 1645 397 bf 0.00759013 0.0728653 0.45351 c 11 9 1657 397 bf 11 9 1668 397 bf 0.0158128 0.151803 0.524225 c 12 9 1679 397 bf
 0.00759013 0.0728653 0.45351 c 11 9 1691 397 bf 12 9 1702 397 bf 11 9 1748 397 bf 0.0158128 0.151803 0.524225 c 12 10 601 406 bf 0.00759013 0.0728653 0.45351 c 11 10 613 406 bf 0.0281863 0.253431 0.604902 c 11 10 624 406 bf 12 10 635 406 bf
 0.0588235 0.486275 0.776471 c 11 10 647 406 bf 11 10 658 406 bf 0.0906863 0.594608 0.78125 c 12 10 669 406 bf 0.122549 0.702941 0.786029 c 11 10 681 406 bf 0.0588235 0.486275 0.776471 c 11 10 692 406 bf 0.122549 0.702941 0.786029 c 12 10 703 406 bf
 11 10 715 406 bf 11 10 726 406 bf 0.549755 0.839706 0.244608 c 12 10 737 406 bf 11 10 749 406 bf 0.122549 0.702941 0.786029 c 11 10 760 406 bf 0.29326 0.785539 0.529779 c 12 10 771 406 bf 0.18652 0.763235 0.706618 c 11 10 783 406 bf 0.4 0.807843
 0.352941 c 12 10 794 406 bf 11 10 806 406 bf 11 10 817 406 bf 12 10 828 406 bf 11 10 840 406 bf 0.68799 0.869118 0.144608 c 11 10 851 406 bf 0.549755 0.839706 0.244608 c 12 10 862 406 bf 0.68799 0.869118 0.144608 c 11 10 874 406 bf 11 10 885 406 bf
 0.4 0.807843 0.352941 c 12 10 896 406 bf 0.68799 0.869118 0.144608 c 11 10 908 406 bf 0.122549 0.702941 0.786029 c 11 10 919 406 bf 0.4 0.807843 0.352941 c 12 10 930 406 bf 0.777451 0.791422 0.0796569 c 11 10 942 406 bf 0.796569 0.585907 0.0653186 c
 11 10 953 406 bf 12 10 964 406 bf 0.549755 0.839706 0.244608 c 11 10 976 406 bf 0.777451 0.791422 0.0796569 c 11 10 987 406 bf 0.796569 0.585907 0.0653186 c 12 10 998 406 bf 0.68799 0.869118 0.144608 c 11 10 1010 406 bf 0.815686 0.380392 0.0509804 c
 12 10 1021 406 bf 0.777451 0.791422 0.0796569 c 11 10 1033 406 bf 0.549755 0.839706 0.244608 c 11 10 1044 406 bf 0.777451 0.791422 0.0796569 c 12 10 1055 406 bf 11 10 1067 406 bf 11 10 1078 406 bf 0.122549 0.702941 0.786029 c 12 10 1089 406 bf 0.4
 0.807843 0.352941 c 11 10 1101 406 bf 0.68799 0.869118 0.144608 c 11 10 1112 406 bf 12 10 1123 406 bf 0.549755 0.839706 0.244608 c 11 10 1135 406 bf 11 10 1146 406 bf 12 10 1157 406 bf 0.68799 0.869118 0.144608 c 11 10 1169 406 bf 11 10 1180 406 bf
 0.4 0.807843 0.352941 c 12 10 1191 406 bf 0.29326 0.785539 0.529779 c 11 10 1203 406 bf 0.18652 0.763235 0.706618 c 11 10 1214 406 bf 0.68799 0.869118 0.144608 c 12 10 1225 406 bf 0.4 0.807843 0.352941 c 11 10 1237 406 bf 12 10 1248 406 bf 11 10
 1260 406 bf 11 10 1271 406 bf 0.122549 0.702941 0.786029 c 12 10 1282 406 bf 0.29326 0.785539 0.529779 c 11 10 1294 406 bf 0.0906863 0.594608 0.78125 c 11 10 1305 406 bf 0.122549 0.702941 0.786029 c 12 10 1316 406 bf 11 10 1328 406 bf 0.29326
 0.785539 0.529779 c 11 10 1339 406 bf 0.122549 0.702941 0.786029 c 12 10 1350 406 bf 0.68799 0.869118 0.144608 c 11 10 1362 406 bf 0.122549 0.702941 0.786029 c 11 10 1373 406 bf 12 10 1384 406 bf 0.0906863 0.594608 0.78125 c 11 10 1396 406 bf
 0.18652 0.763235 0.706618 c 11 10 1407 406 bf 0.0588235 0.486275 0.776471 c 12 10 1418 406 bf 0.122549 0.702941 0.786029 c 11 10 1430 406 bf 0.0588235 0.486275 0.776471 c 11 10 1441 406 bf 0.29326 0.785539 0.529779 c 12 10 1452 406 bf 0.0906863
 0.594608 0.78125 c 11 10 1464 406 bf 0.0588235 0.486275 0.776471 c 12 10 1475 406 bf 0.0906863 0.594608 0.78125 c 11 10 1487 406 bf 0.0588235 0.486275 0.776471 c 11 10 1498 406 bf 0.0281863 0.253431 0.604902 c 12 10 1509 406 bf 0.0906863 0.594608
 0.78125 c 11 10 1521 406 bf 0.0428922 0.365196 0.687255 c 11 10 1532 406 bf 12 10 1543 406 bf 0.0281863 0.253431 0.604902 c 11 10 1555 406 bf 0.0428922 0.365196 0.687255 c 11 10 1566 406 bf 0.0158128 0.151803 0.524225 c 12 10 1577 406 bf 0.0428922
 0.365196 0.687255 c 11 10 1589 406 bf 0.0281863 0.253431 0.604902 c 11 10 1600 406 bf 12 10 1611 406 bf 11 10 1623 406 bf 0.0428922 0.365196 0.687255 c 11 10 1634 406 bf 0.0158128 0.151803 0.524225 c 12 10 1645 406 bf 0.0281863 0.253431 0.604902 c
 11 10 1657 406 bf 0.0158128 0.151803 0.524225 c 11 10 1668 406 bf 0.00759013 0.0728653 0.45351 c 12 10 1679 406 bf 11 10 1691 406 bf 12 10 1702 406 bf 11 10 1714 406 bf 11 10 1725 406 bf 12 10 1736 406 bf 11 10 1759 406 bf 12 10 1770 406 bf 11 10
 1782 406 bf 12 10 1804 406 bf 11 10 1816 406 bf 11 10 1850 406 bf 11 10 590 416 bf 12 10 601 416 bf 0.0158128 0.151803 0.524225 c 11 10 613 416 bf 0.0428922 0.365196 0.687255 c 11 10 624 416 bf 12 10 635 416 bf 11 10 647 416 bf 0.0281863 0.253431
 0.604902 c 11 10 658 416 bf 0.122549 0.702941 0.786029 c 12 10 669 416 bf 11 10 681 416 bf 0.18652 0.763235 0.706618 c 11 10 692 416 bf 0.122549 0.702941 0.786029 c 12 10 703 416 bf 0.29326 0.785539 0.529779 c 11 10 715 416 bf 0.18652 0.763235
 0.706618 c 11 10 726 416 bf 12 10 737 416 bf 0.122549 0.702941 0.786029 c 11 10 749 416 bf 0.18652 0.763235 0.706618 c 11 10 760 416 bf 0.4 0.807843 0.352941 c 12 10 771 416 bf 0.29326 0.785539 0.529779 c 11 10 783 416 bf 0.4 0.807843 0.352941 c 12
 10 794 416 bf 0.549755 0.839706 0.244608 c 11 10 806 416 bf 0.4 0.807843 0.352941 c 11 10 817 416 bf 12 10 828 416 bf 0.777451 0.791422 0.0796569 c 11 10 840 416 bf 0.68799 0.869118 0.144608 c 11 10 851 416 bf 0.549755 0.839706 0.244608 c 12 10 862
 416 bf 0.68799 0.869118 0.144608 c 11 10 874 416 bf 0.796569 0.585907 0.0653186 c 11 10 885 416 bf 12 10 896 416 bf 0.549755 0.839706 0.244608 c 11 10 908 416 bf 0.68799 0.869118 0.144608 c 11 10 919 416 bf 12 10 930 416 bf 0.549755 0.839706
 0.244608 c 11 10 942 416 bf 11 10 953 416 bf 0.777451 0.791422 0.0796569 c 12 10 964 416 bf 0.68799 0.869118 0.144608 c 11 10 976 416 bf 0.4 0.807843 0.352941 c 11 10 987 416 bf 0.68799 0.869118 0.144608 c 12 10 998 416 bf 11 10 1010 416 bf 0.796569
 0.585907 0.0653186 c 12 10 1021 416 bf 0.777451 0.791422 0.0796569 c 11 10 1033 416 bf 0.68799 0.869118 0.144608 c 11 10 1044 416 bf 12 10 1055 416 bf 0.777451 0.791422 0.0796569 c 11 10 1067 416 bf 0.68799 0.869118 0.144608 c 11 10 1078 416 bf
 0.549755 0.839706 0.244608 c 12 10 1089 416 bf 0.68799 0.869118 0.144608 c 11 10 1101 416 bf 0.796569 0.585907 0.0653186 c 11 10 1112 416 bf 0.4 0.807843 0.352941 c 12 10 1123 416 bf 0.796569 0.585907 0.0653186 c 11 10 1135 416 bf 0.549755 0.839706
 0.244608 c 11 10 1146 416 bf 0.777451 0.791422 0.0796569 c 12 10 1157 416 bf 0.549755 0.839706 0.244608 c 11 10 1169 416 bf 0.68799 0.869118 0.144608 c 11 10 1180 416 bf 0.4 0.807843 0.352941 c 12 10 1191 416 bf 0.68799 0.869118 0.144608 c 11 10
 1203 416 bf 0.777451 0.791422 0.0796569 c 11 10 1214 416 bf 0.549755 0.839706 0.244608 c 12 10 1225 416 bf 0.4 0.807843 0.352941 c 11 10 1237 416 bf 0.68799 0.869118 0.144608 c 12 10 1248 416 bf 0.549755 0.839706 0.244608 c 11 10 1260 416 bf 0.4
 0.807843 0.352941 c 11 10 1271 416 bf 12 10 1282 416 bf 0.549755 0.839706 0.244608 c 11 10 1294 416 bf 0.29326 0.785539 0.529779 c 11 10 1305 416 bf 0.4 0.807843 0.352941 c 12 10 1316 416 bf 0.68799 0.869118 0.144608 c 11 10 1328 416 bf 11 10 1339
 416 bf 0.18652 0.763235 0.706618 c 12 10 1350 416 bf 0.29326 0.785539 0.529779 c 11 10 1362 416 bf 0.4 0.807843 0.352941 c 11 10 1373 416 bf 0.549755 0.839706 0.244608 c 12 10 1384 416 bf 0.18652 0.763235 0.706618 c 11 10 1396 416 bf 0.549755
 0.839706 0.244608 c 11 10 1407 416 bf 0.29326 0.785539 0.529779 c 12 10 1418 416 bf 0.0906863 0.594608 0.78125 c 11 10 1430 416 bf 0.29326 0.785539 0.529779 c 11 10 1441 416 bf 0.0906863 0.594608 0.78125 c 12 10 1452 416 bf 0.122549 0.702941
 0.786029 c 11 10 1464 416 bf 12 10 1475 416 bf 11 10 1487 416 bf 0.29326 0.785539 0.529779 c 11 10 1498 416 bf 0.0906863 0.594608 0.78125 c 12 10 1509 416 bf 0.122549 0.702941 0.786029 c 11 10 1521 416 bf 0.0588235 0.486275 0.776471 c 11 10 1532 416
 bf 0.0906863 0.594608 0.78125 c 12 10 1543 416 bf 0.122549 0.702941 0.786029 c 11 10 1555 416 bf 0.0906863 0.594608 0.78125 c 11 10 1566 416 bf 0.0281863 0.253431 0.604902 c 12 10 1577 416 bf 0.0588235 0.486275 0.776471 c 11 10 1589 416 bf 0.0281863
 0.253431 0.604902 c 11 10 1600 416 bf 12 10 1611 416 bf 11 10 1623 416 bf 11 10 1634 416 bf 12 10 1645 416 bf 11 10 1657 416 bf 0.0158128 0.151803 0.524225 c 11 10 1668 416 bf 12 10 1679 416 bf 11 10 1691 416 bf 0.00759013 0.0728653 0.45351 c 11 10
 1714 416 bf 11 10 1725 416 bf 12 10 1736 416 bf 11 10 1748 416 bf 11 10 1759 416 bf 0.0158128 0.151803 0.524225 c 12 10 1770 416 bf 0.00759013 0.0728653 0.45351 c 11 10 1816 416 bf 11 10 1850 416 bf 11 10 590 426 bf 12 10 601 426 bf 0.0158128
 0.151803 0.524225 c 11 10 613 426 bf 0.0428922 0.365196 0.687255 c 11 10 624 426 bf 0.0588235 0.486275 0.776471 c 12 10 635 426 bf 0.0428922 0.365196 0.687255 c 11 10 647 426 bf 11 10 658 426 bf 0.0906863 0.594608 0.78125 c 12 10 669 426 bf 11 10
 681 426 bf 0.0588235 0.486275 0.776471 c 11 10 692 426 bf 0.122549 0.702941 0.786029 c 12 10 703 426 bf 0.29326 0.785539 0.529779 c 11 10 715 426 bf 11 10 726 426 bf 12 10 737 426 bf 0.122549 0.702941 0.786029 c 11 10 749 426 bf 0.4 0.807843
 0.352941 c 11 10 760 426 bf 0.29326 0.785539 0.529779 c 12 10 771 426 bf 11 10 783 426 bf 0.4 0.807843 0.352941 c 12 10 794 426 bf 0.29326 0.785539 0.529779 c 11 10 806 426 bf 0.549755 0.839706 0.244608 c 11 10 817 426 bf 0.18652 0.763235 0.706618 c
 12 10 828 426 bf 0.68799 0.869118 0.144608 c 11 10 840 426 bf 0.796569 0.585907 0.0653186 c 11 10 851 426 bf 0.549755 0.839706 0.244608 c 12 10 862 426 bf 0.68799 0.869118 0.144608 c 11 10 874 426 bf 0.549755 0.839706 0.244608 c 11 10 885 426 bf 0.4
 0.807843 0.352941 c 12 10 896 426 bf 0.549755 0.839706 0.244608 c 11 10 908 426 bf 0.4 0.807843 0.352941 c 11 10 919 426 bf 0.777451 0.791422 0.0796569 c 12 10 930 426 bf 0.4 0.807843 0.352941 c 11 10 942 426 bf 0.68799 0.869118 0.144608 c 11 10 953
 426 bf 12 10 964 426 bf 0.796569 0.585907 0.0653186 c 11 10 976 426 bf 0.68799 0.869118 0.144608 c 11 10 987 426 bf 12 10 998 426 bf 11 10 1010 426 bf 12 10 1021 426 bf 0.796569 0.585907 0.0653186 c 11 10 1033 426 bf 0.549755 0.839706 0.244608 c 11
 10 1044 426 bf 12 10 1055 426 bf 0.68799 0.869118 0.144608 c 11 10 1067 426 bf 0.796569 0.585907 0.0653186 c 11 10 1078 426 bf 0.549755 0.839706 0.244608 c 12 10 1089 426 bf 0.777451 0.791422 0.0796569 c 11 10 1101 426 bf 0.68799 0.869118 0.144608 c
 11 10 1112 426 bf 0.4 0.807843 0.352941 c 12 10 1123 426 bf 0.777451 0.791422 0.0796569 c 11 10 1135 426 bf 0.29326 0.785539 0.529779 c 11 10 1146 426 bf 0.549755 0.839706 0.244608 c 12 10 1157 426 bf 0.777451 0.791422 0.0796569 c 11 10 1169 426 bf
 0.549755 0.839706 0.244608 c 11 10 1180 426 bf 12 10 1191 426 bf 0.68799 0.869118 0.144608 c 11 10 1203 426 bf 0.777451 0.791422 0.0796569 c 11 10 1214 426 bf 0.4 0.807843 0.352941 c 12 10 1225 426 bf 0.68799 0.869118 0.144608 c 11 10 1237 426 bf
 0.4 0.807843 0.352941 c 12 10 1248 426 bf 0.68799 0.869118 0.144608 c 11 10 1260 426 bf 0.29326 0.785539 0.529779 c 11 10 1271 426 bf 0.549755 0.839706 0.244608 c 12 10 1282 426 bf 11 10 1294 426 bf 11 10 1305 426 bf 0.29326 0.785539 0.529779 c 12
 10 1316 426 bf 0.68799 0.869118 0.144608 c 11 10 1328 426 bf 0.4 0.807843 0.352941 c 11 10 1339 426 bf 0.68799 0.869118 0.144608 c 12 10 1350 426 bf 0.549755 0.839706 0.244608 c 11 10 1362 426 bf 0.4 0.807843 0.352941 c 11 10 1373 426 bf 12 10 1384
 426 bf 0.796569 0.585907 0.0653186 c 11 10 1396 426 bf 0.4 0.807843 0.352941 c 11 10 1407 426 bf 0.29326 0.785539 0.529779 c 12 10 1418 426 bf 0.18652 0.763235 0.706618 c 11 10 1430 426 bf 11 10 1441 426 bf 0.549755 0.839706 0.244608 c 12 10 1452
 426 bf 0.122549 0.702941 0.786029 c 11 10 1464 426 bf 12 10 1475 426 bf 11 10 1487 426 bf 0.18652 0.763235 0.706618 c 11 10 1498 426 bf 0.0906863 0.594608 0.78125 c 12 10 1509 426 bf 0.122549 0.702941 0.786029 c 11 10 1521 426 bf 0.0428922 0.365196
 0.687255 c 11 10 1532 426 bf 0.0906863 0.594608 0.78125 c 12 10 1543 426 bf 0.0588235 0.486275 0.776471 c 11 10 1555 426 bf 0.0428922 0.365196 0.687255 c 11 10 1566 426 bf 12 10 1577 426 bf 0.0588235 0.486275 0.776471 c 11 10 1589 426 bf 0.0281863
 0.253431 0.604902 c 11 10 1600 426 bf 0.0428922 0.365196 0.687255 c 12 10 1611 426 bf 11 10 1623 426 bf 11 10 1634 426 bf 12 10 1645 426 bf 0.0281863 0.253431 0.604902 c 11 10 1657 426 bf 0.0158128 0.151803 0.524225 c 11 10 1668 426 bf 12 10 1679
 426 bf 11 10 1691 426 bf 0.00759013 0.0728653 0.45351 c 12 10 1702 426 bf 11 10 1725 426 bf 12 10 1736 426 bf 0.0158128 0.151803 0.524225 c 11 10 1748 426 bf 0.00759013 0.0728653 0.45351 c 11 10 1759 426 bf 12 10 1770 426 bf 11 10 1782 426 bf 12 10
 1804 426 bf 11 10 1827 426 bf 12 10 1838 426 bf 11 9 590 436 bf 12 9 601 436 bf 0.0158128 0.151803 0.524225 c 11 9 613 436 bf 0.0428922 0.365196 0.687255 c 11 9 624 436 bf 12 9 635 436 bf 0.0588235 0.486275 0.776471 c 11 9 647 436 bf 11 9 658 436 bf
 12 9 669 436 bf 0.0906863 0.594608 0.78125 c 11 9 681 436 bf 11 9 692 436 bf 0.18652 0.763235 0.706618 c 12 9 703 436 bf 0.29326 0.785539 0.529779 c 11 9 715 436 bf 0.18652 0.763235 0.706618 c 11 9 726 436 bf 12 9 737 436 bf 0.122549 0.702941
 0.786029 c 11 9 749 436 bf 0.4 0.807843 0.352941 c 11 9 760 436 bf 12 9 771 436 bf 0.18652 0.763235 0.706618 c 11 9 783 436 bf 0.549755 0.839706 0.244608 c 12 9 794 436 bf 11 9 806 436 bf 0.68799 0.869118 0.144608 c 11 9 817 436 bf 0.4 0.807843
 0.352941 c 12 9 828 436 bf 11 9 840 436 bf 0.549755 0.839706 0.244608 c 11 9 851 436 bf 0.777451 0.791422 0.0796569 c 12 9 862 436 bf 0.29326 0.785539 0.529779 c 11 9 874 436 bf 0.549755 0.839706 0.244608 c 11 9 885 436 bf 12 9 896 436 bf 0.777451
 0.791422 0.0796569 c 11 9 908 436 bf 0.549755 0.839706 0.244608 c 11 9 919 436 bf 0.796569 0.585907 0.0653186 c 12 9 930 436 bf 0.549755 0.839706 0.244608 c 11 9 942 436 bf 0.777451 0.791422 0.0796569 c 11 9 953 436 bf 0.549755 0.839706 0.244608 c
 12 9 964 436 bf 11 9 976 436 bf 0.68799 0.869118 0.144608 c 11 9 987 436 bf 0.549755 0.839706 0.244608 c 12 9 998 436 bf 0.68799 0.869118 0.144608 c 11 9 1010 436 bf 0.549755 0.839706 0.244608 c 12 9 1021 436 bf 0.777451 0.791422 0.0796569 c 11 9
 1033 436 bf 0.4 0.807843 0.352941 c 11 9 1044 436 bf 0.549755 0.839706 0.244608 c 12 9 1055 436 bf 0.796569 0.585907 0.0653186 c 11 9 1067 436 bf 0.549755 0.839706 0.244608 c 11 9 1078 436 bf 0.4 0.807843 0.352941 c 12 9 1089 436 bf 0.796569
 0.585907 0.0653186 c 11 9 1101 436 bf 0.549755 0.839706 0.244608 c 11 9 1112 436 bf 12 9 1123 436 bf 0.68799 0.869118 0.144608 c 11 9 1135 436 bf 0.29326 0.785539 0.529779 c 11 9 1146 436 bf 12 9 1157 436 bf 0.777451 0.791422 0.0796569 c 11 9 1169
 436 bf 0.18652 0.763235 0.706618 c 11 9 1180 436 bf 0.29326 0.785539 0.529779 c 12 9 1191 436 bf 0.777451 0.791422 0.0796569 c 11 9 1203 436 bf 0.549755 0.839706 0.244608 c 11 9 1214 436 bf 0.4 0.807843 0.352941 c 12 9 1225 436 bf 0.68799 0.869118
 0.144608 c 11 9 1237 436 bf 0.4 0.807843 0.352941 c 12 9 1248 436 bf 0.549755 0.839706 0.244608 c 11 9 1260 436 bf 0.68799 0.869118 0.144608 c 11 9 1271 436 bf 0.4 0.807843 0.352941 c 12 9 1282 436 bf 0.549755 0.839706 0.244608 c 11 9 1294 436 bf 11
 9 1305 436 bf 12 9 1316 436 bf 0.29326 0.785539 0.529779 c 11 9 1328 436 bf 0.122549 0.702941 0.786029 c 11 9 1339 436 bf 0.4 0.807843 0.352941 c 12 9 1350 436 bf 0.549755 0.839706 0.244608 c 11 9 1362 436 bf 0.4 0.807843 0.352941 c 11 9 1373 436 bf
 0.29326 0.785539 0.529779 c 12 9 1384 436 bf 11 9 1396 436 bf 0.0906863 0.594608 0.78125 c 11 9 1407 436 bf 0.4 0.807843 0.352941 c 12 9 1418 436 bf 0.29326 0.785539 0.529779 c 11 9 1430 436 bf 11 9 1441 436 bf 0.4 0.807843 0.352941 c 12 9 1452 436
 bf 0.18652 0.763235 0.706618 c 11 9 1464 436 bf 12 9 1475 436 bf 0.29326 0.785539 0.529779 c 11 9 1487 436 bf 0.0906863 0.594608 0.78125 c 11 9 1498 436 bf 12 9 1509 436 bf 11 9 1521 436 bf 0.122549 0.702941 0.786029 c 11 9 1532 436 bf 0.0906863
 0.594608 0.78125 c 12 9 1543 436 bf 0.122549 0.702941 0.786029 c 11 9 1555 436 bf 0.0588235 0.486275 0.776471 c 11 9 1566 436 bf 0.0428922 0.365196 0.687255 c 12 9 1577 436 bf 0.0588235 0.486275 0.776471 c 11 9 1589 436 bf 0.0428922 0.365196
 0.687255 c 11 9 1600 436 bf 12 9 1611 436 bf 0.0281863 0.253431 0.604902 c 11 9 1623 436 bf 0.0428922 0.365196 0.687255 c 11 9 1634 436 bf 12 9 1645 436 bf 0.0158128 0.151803 0.524225 c 11 9 1657 436 bf 11 9 1668 436 bf 12 9 1679 436 bf 11 9 1691
 436 bf 0.00759013 0.0728653 0.45351 c 12 9 1702 436 bf 11 9 1714 436 bf 11 9 1725 436 bf 12 9 1736 436 bf 11 9 1748 436 bf 11 9 1759 436 bf 12 9 1770 436 bf 12 9 1804 436 bf 11 9 1816 436 bf 11 9 1827 436 bf 11 10 590 445 bf 0.0158128 0.151803
 0.524225 c 12 10 601 445 bf 11 10 613 445 bf 11 10 624 445 bf 0.0428922 0.365196 0.687255 c 12 10 635 445 bf 0.0588235 0.486275 0.776471 c 11 10 647 445 bf 0.0428922 0.365196 0.687255 c 11 10 658 445 bf 0.0588235 0.486275 0.776471 c 12 10 669 445 bf
 11 10 681 445 bf 0.122549 0.702941 0.786029 c 11 10 692 445 bf 12 10 703 445 bf 0.18652 0.763235 0.706618 c 11 10 715 445 bf 0.122549 0.702941 0.786029 c 11 10 726 445 bf 0.18652 0.763235 0.706618 c 12 10 737 445 bf 11 10 749 445 bf 11 10 760 445 bf
 12 10 771 445 bf 0.29326 0.785539 0.529779 c 11 10 783 445 bf 12 10 794 445 bf 0.68799 0.869118 0.144608 c 11 10 806 445 bf 0.122549 0.702941 0.786029 c 11 10 817 445 bf 0.4 0.807843 0.352941 c 12 10 828 445 bf 0.68799 0.869118 0.144608 c 11 10 840
 445 bf 0.549755 0.839706 0.244608 c 11 10 851 445 bf 12 10 862 445 bf 0.4 0.807843 0.352941 c 11 10 874 445 bf 0.549755 0.839706 0.244608 c 11 10 885 445 bf 0.68799 0.869118 0.144608 c 12 10 896 445 bf 0.777451 0.791422 0.0796569 c 11 10 908 445 bf
 0.68799 0.869118 0.144608 c 11 10 919 445 bf 0.4 0.807843 0.352941 c 12 10 930 445 bf 0.549755 0.839706 0.244608 c 11 10 942 445 bf 0.68799 0.869118 0.144608 c 11 10 953 445 bf 12 10 964 445 bf 0.777451 0.791422 0.0796569 c 11 10 976 445 bf 0.549755
 0.839706 0.244608 c 11 10 987 445 bf 12 10 998 445 bf 0.68799 0.869118 0.144608 c 11 10 1010 445 bf 0.815686 0.380392 0.0509804 c 12 10 1021 445 bf 0.549755 0.839706 0.244608 c 11 10 1033 445 bf 11 10 1044 445 bf 0.796569 0.585907 0.0653186 c 12 10
 1055 445 bf 0.777451 0.791422 0.0796569 c 11 10 1067 445 bf 0.68799 0.869118 0.144608 c 11 10 1078 445 bf 12 10 1089 445 bf 0.549755 0.839706 0.244608 c 11 10 1101 445 bf 0.68799 0.869118 0.144608 c 11 10 1112 445 bf 12 10 1123 445 bf 0.4 0.807843
 0.352941 c 11 10 1135 445 bf 0.777451 0.791422 0.0796569 c 11 10 1146 445 bf 0.4 0.807843 0.352941 c 12 10 1157 445 bf 11 10 1169 445 bf 0.29326 0.785539 0.529779 c 11 10 1180 445 bf 12 10 1191 445 bf 0.68799 0.869118 0.144608 c 11 10 1203 445 bf
 0.777451 0.791422 0.0796569 c 11 10 1214 445 bf 0.29326 0.785539 0.529779 c 12 10 1225 445 bf 0.549755 0.839706 0.244608 c 11 10 1237 445 bf 0.68799 0.869118 0.144608 c 12 10 1248 445 bf 11 10 1260 445 bf 0.122549 0.702941 0.786029 c 11 10 1271 445
 bf 0.549755 0.839706 0.244608 c 12 10 1282 445 bf 0.777451 0.791422 0.0796569 c 11 10 1294 445 bf 0.68799 0.869118 0.144608 c 11 10 1305 445 bf 0.29326 0.785539 0.529779 c 12 10 1316 445 bf 0.549755 0.839706 0.244608 c 11 10 1328 445 bf 0.4 0.807843
 0.352941 c 11 10 1339 445 bf 0.777451 0.791422 0.0796569 c 12 10 1350 445 bf 0.4 0.807843 0.352941 c 11 10 1362 445 bf 0.549755 0.839706 0.244608 c 11 10 1373 445 bf 0.18652 0.763235 0.706618 c 12 10 1384 445 bf 0.4 0.807843 0.352941 c 11 10 1396
 445 bf 0.29326 0.785539 0.529779 c 11 10 1407 445 bf 0.122549 0.702941 0.786029 c 12 10 1418 445 bf 0.18652 0.763235 0.706618 c 11 10 1430 445 bf 0.122549 0.702941 0.786029 c 11 10 1441 445 bf 0.18652 0.763235 0.706618 c 12 10 1452 445 bf 0.122549
 0.702941 0.786029 c 11 10 1464 445 bf 0.18652 0.763235 0.706618 c 12 10 1475 445 bf 0.0906863 0.594608 0.78125 c 11 10 1487 445 bf 11 10 1498 445 bf 0.122549 0.702941 0.786029 c 12 10 1509 445 bf 11 10 1521 445 bf 0.0906863 0.594608 0.78125 c 11 10
 1532 445 bf 0.122549 0.702941 0.786029 c 12 10 1543 445 bf 0.0906863 0.594608 0.78125 c 11 10 1555 445 bf 0.122549 0.702941 0.786029 c 11 10 1566 445 bf 0.18652 0.763235 0.706618 c 12 10 1577 445 bf 0.0588235 0.486275 0.776471 c 11 10 1589 445 bf
 0.0906863 0.594608 0.78125 c 11 10 1600 445 bf 0.0428922 0.365196 0.687255 c 12 10 1611 445 bf 0.0588235 0.486275 0.776471 c 11 10 1623 445 bf 0.0281863 0.253431 0.604902 c 11 10 1634 445 bf 12 10 1645 445 bf 11 10 1657 445 bf 11 10 1668 445 bf
 0.0158128 0.151803 0.524225 c 12 10 1679 445 bf 11 10 1691 445 bf 0.00759013 0.0728653 0.45351 c 12 10 1702 445 bf 11 10 1714 445 bf 11 10 1725 445 bf 12 10 1736 445 bf 0.0158128 0.151803 0.524225 c 11 10 1748 445 bf 0.00759013 0.0728653 0.45351 c
 11 10 1759 445 bf 12 10 1770 445 bf 11 10 1793 445 bf 11 10 1816 445 bf 11 10 1827 445 bf 11 10 590 455 bf 12 10 601 455 bf 0.0158128 0.151803 0.524225 c 11 10 613 455 bf 11 10 624 455 bf 0.0428922 0.365196 0.687255 c 12 10 635 455 bf 0.0281863
 0.253431 0.604902 c 11 10 647 455 bf 11 10 658 455 bf 0.0588235 0.486275 0.776471 c 12 10 669 455 bf 0.0906863 0.594608 0.78125 c 11 10 681 455 bf 11 10 692 455 bf 0.18652 0.763235 0.706618 c 12 10 703 455 bf 0.122549 0.702941 0.786029 c 11 10 715
 455 bf 0.29326 0.785539 0.529779 c 11 10 726 455 bf 12 10 737 455 bf 11 10 749 455 bf 11 10 760 455 bf 0.18652 0.763235 0.706618 c 12 10 771 455 bf 11 10 783 455 bf 0.4 0.807843 0.352941 c 12 10 794 455 bf 11 10 806 455 bf 0.29326 0.785539 0.529779
 c 11 10 817 455 bf 12 10 828 455 bf 0.68799 0.869118 0.144608 c 11 10 840 455 bf 0.4 0.807843 0.352941 c 11 10 851 455 bf 12 10 862 455 bf 0.549755 0.839706 0.244608 c 11 10 874 455 bf 0.68799 0.869118 0.144608 c 11 10 885 455 bf 0.549755 0.839706
 0.244608 c 12 10 896 455 bf 11 10 908 455 bf 0.4 0.807843 0.352941 c 11 10 919 455 bf 0.68799 0.869118 0.144608 c 12 10 930 455 bf 11 10 942 455 bf 0.4 0.807843 0.352941 c 11 10 953 455 bf 12 10 964 455 bf 0.68799 0.869118 0.144608 c 11 10 976 455
 bf 0.549755 0.839706 0.244608 c 11 10 987 455 bf 0.68799 0.869118 0.144608 c 12 10 998 455 bf 0.796569 0.585907 0.0653186 c 11 10 1010 455 bf 0.4 0.807843 0.352941 c 12 10 1021 455 bf 0.68799 0.869118 0.144608 c 11 10 1033 455 bf 0.4 0.807843
 0.352941 c 11 10 1044 455 bf 0.68799 0.869118 0.144608 c 12 10 1055 455 bf 0.777451 0.791422 0.0796569 c 11 10 1067 455 bf 0.796569 0.585907 0.0653186 c 11 10 1078 455 bf 0.68799 0.869118 0.144608 c 12 10 1089 455 bf 11 10 1101 455 bf 11 10 1112 455
 bf 0.549755 0.839706 0.244608 c 12 10 1123 455 bf 11 10 1135 455 bf 0.29326 0.785539 0.529779 c 11 10 1146 455 bf 0.549755 0.839706 0.244608 c 12 10 1157 455 bf 11 10 1169 455 bf 0.29326 0.785539 0.529779 c 11 10 1180 455 bf 0.796569 0.585907
 0.0653186 c 12 10 1191 455 bf 0.29326 0.785539 0.529779 c 11 10 1203 455 bf 0.4 0.807843 0.352941 c 11 10 1214 455 bf 12 10 1225 455 bf 0.29326 0.785539 0.529779 c 11 10 1237 455 bf 0.4 0.807843 0.352941 c 12 10 1248 455 bf 11 10 1260 455 bf 11 10
 1271 455 bf 0.549755 0.839706 0.244608 c 12 10 1282 455 bf 11 10 1294 455 bf 0.4 0.807843 0.352941 c 11 10 1305 455 bf 0.18652 0.763235 0.706618 c 12 10 1316 455 bf 0.68799 0.869118 0.144608 c 11 10 1328 455 bf 0.4 0.807843 0.352941 c 11 10 1339 455
 bf 0.29326 0.785539 0.529779 c 12 10 1350 455 bf 0.18652 0.763235 0.706618 c 11 10 1362 455 bf 11 10 1373 455 bf 0.549755 0.839706 0.244608 c 12 10 1384 455 bf 0.29326 0.785539 0.529779 c 11 10 1396 455 bf 0.4 0.807843 0.352941 c 11 10 1407 455 bf
 12 10 1418 455 bf 0.122549 0.702941 0.786029 c 11 10 1430 455 bf 0.549755 0.839706 0.244608 c 11 10 1441 455 bf 0.29326 0.785539 0.529779 c 12 10 1452 455 bf 0.0906863 0.594608 0.78125 c 11 10 1464 455 bf 0.29326 0.785539 0.529779 c 12 10 1475 455
 bf 0.18652 0.763235 0.706618 c 11 10 1487 455 bf 0.29326 0.785539 0.529779 c 11 10 1498 455 bf 0.18652 0.763235 0.706618 c 12 10 1509 455 bf 0.29326 0.785539 0.529779 c 11 10 1521 455 bf 0.122549 0.702941 0.786029 c 11 10 1532 455 bf 12 10 1543 455
 bf 11 10 1555 455 bf 0.18652 0.763235 0.706618 c 11 10 1566 455 bf 0.122549 0.702941 0.786029 c 12 10 1577 455 bf 0.0588235 0.486275 0.776471 c 11 10 1589 455 bf 11 10 1600 455 bf 0.0906863 0.594608 0.78125 c 12 10 1611 455 bf 0.0588235 0.486275
 0.776471 c 11 10 1623 455 bf 0.0428922 0.365196 0.687255 c 11 10 1634 455 bf 12 10 1645 455 bf 0.0158128 0.151803 0.524225 c 11 10 1657 455 bf 11 10 1668 455 bf 0.00759013 0.0728653 0.45351 c 12 10 1679 455 bf 0.0158128 0.151803 0.524225 c 11 10
 1691 455 bf 0.00759013 0.0728653 0.45351 c 12 10 1702 455 bf 11 10 1714 455 bf 0.0158128 0.151803 0.524225 c 11 10 1725 455 bf 0.00759013 0.0728653 0.45351 c 12 10 1736 455 bf 0.0158128 0.151803 0.524225 c 11 10 1748 455 bf 0.00759013 0.0728653
 0.45351 c 11 10 1759 455 bf 12 10 1770 455 bf 11 10 1782 455 bf 11 10 1793 455 bf 12 10 1804 455 bf 12 10 1872 455 bf 11 10 1884 455 bf 11 9 545 465 bf 11 9 579 465 bf 11 9 590 465 bf 12 9 601 465 bf 0.0281863 0.253431 0.604902 c 11 9 613 465 bf 11
 9 624 465 bf 12 9 635 465 bf 0.0428922 0.365196 0.687255 c 11 9 647 465 bf 11 9 658 465 bf 0.0906863 0.594608 0.78125 c 12 9 669 465 bf 0.0588235 0.486275 0.776471 c 11 9 681 465 bf 11 9 692 465 bf 0.122549 0.702941 0.786029 c 12 9 703 465 bf
 0.29326 0.785539 0.529779 c 11 9 715 465 bf 11 9 726 465 bf 0.0906863 0.594608 0.78125 c 12 9 737 465 bf 0.122549 0.702941 0.786029 c 11 9 749 465 bf 0.4 0.807843 0.352941 c 11 9 760 465 bf 12 9 771 465 bf 11 9 783 465 bf 0.122549 0.702941 0.786029
 c 12 9 794 465 bf 0.549755 0.839706 0.244608 c 11 9 806 465 bf 0.29326 0.785539 0.529779 c 11 9 817 465 bf 12 9 828 465 bf 0.549755 0.839706 0.244608 c 11 9 840 465 bf 0.122549 0.702941 0.786029 c 11 9 851 465 bf 0.4 0.807843 0.352941 c 12 9 862 465
 bf 0.777451 0.791422 0.0796569 c 11 9 874 465 bf 0.796569 0.585907 0.0653186 c 11 9 885 465 bf 0.68799 0.869118 0.144608 c 12 9 896 465 bf 11 9 908 465 bf 11 9 919 465 bf 0.4 0.807843 0.352941 c 12 9 930 465 bf 0.549755 0.839706 0.244608 c 11 9 942
 465 bf 0.68799 0.869118 0.144608 c 11 9 953 465 bf 0.549755 0.839706 0.244608 c 12 9 964 465 bf 0.777451 0.791422 0.0796569 c 11 9 976 465 bf 0.4 0.807843 0.352941 c 11 9 987 465 bf 0.68799 0.869118 0.144608 c 12 9 998 465 bf 0.777451 0.791422
 0.0796569 c 11 9 1010 465 bf 0.549755 0.839706 0.244608 c 12 9 1021 465 bf 0.4 0.807843 0.352941 c 11 9 1033 465 bf 0.68799 0.869118 0.144608 c 11 9 1044 465 bf 0.777451 0.791422 0.0796569 c 12 9 1055 465 bf 0.815686 0.380392 0.0509804 c 11 9 1067
 465 bf 0.4 0.807843 0.352941 c 11 9 1078 465 bf 0.549755 0.839706 0.244608 c 12 9 1089 465 bf 11 9 1101 465 bf 0.815686 0.380392 0.0509804 c 11 9 1112 465 bf 0.796569 0.585907 0.0653186 c 12 9 1123 465 bf 0.4 0.807843 0.352941 c 11 9 1135 465 bf
 0.29326 0.785539 0.529779 c 11 9 1146 465 bf 0.777451 0.791422 0.0796569 c 12 9 1157 465 bf 0.4 0.807843 0.352941 c 11 9 1169 465 bf 0.549755 0.839706 0.244608 c 11 9 1180 465 bf 0.68799 0.869118 0.144608 c 12 9 1191 465 bf 11 9 1203 465 bf 0.549755
 0.839706 0.244608 c 11 9 1214 465 bf 0.122549 0.702941 0.786029 c 12 9 1225 465 bf 0.29326 0.785539 0.529779 c 11 9 1237 465 bf 0.18652 0.763235 0.706618 c 12 9 1248 465 bf 0.549755 0.839706 0.244608 c 11 9 1260 465 bf 0.4 0.807843 0.352941 c 11 9
 1271 465 bf 0.549755 0.839706 0.244608 c 12 9 1282 465 bf 11 9 1294 465 bf 0.29326 0.785539 0.529779 c 11 9 1305 465 bf 0.549755 0.839706 0.244608 c 12 9 1316 465 bf 0.4 0.807843 0.352941 c 11 9 1328 465 bf 0.777451 0.791422 0.0796569 c 11 9 1339
 465 bf 0.18652 0.763235 0.706618 c 12 9 1350 465 bf 0.29326 0.785539 0.529779 c 11 9 1362 465 bf 0.777451 0.791422 0.0796569 c 11 9 1373 465 bf 0.29326 0.785539 0.529779 c 12 9 1384 465 bf 0.549755 0.839706 0.244608 c 11 9 1396 465 bf 0.29326
 0.785539 0.529779 c 11 9 1407 465 bf 12 9 1418 465 bf 11 9 1430 465 bf 0.18652 0.763235 0.706618 c 11 9 1441 465 bf 0.122549 0.702941 0.786029 c 12 9 1452 465 bf 0.18652 0.763235 0.706618 c 11 9 1464 465 bf 12 9 1475 465 bf 0.29326 0.785539 0.529779
 c 11 9 1487 465 bf 0.18652 0.763235 0.706618 c 11 9 1498 465 bf 0.0906863 0.594608 0.78125 c 12 9 1509 465 bf 0.122549 0.702941 0.786029 c 11 9 1521 465 bf 0.0906863 0.594608 0.78125 c 11 9 1532 465 bf 0.18652 0.763235 0.706618 c 12 9 1543 465 bf
 0.0588235 0.486275 0.776471 c 11 9 1555 465 bf 0.0906863 0.594608 0.78125 c 11 9 1566 465 bf 12 9 1577 465 bf 11 9 1589 465 bf 0.0588235 0.486275 0.776471 c 11 9 1600 465 bf 0.0906863 0.594608 0.78125 c 12 9 1611 465 bf 11 9 1623 465 bf 0.0588235
 0.486275 0.776471 c 11 9 1634 465 bf 0.0281863 0.253431 0.604902 c 12 9 1645 465 bf 11 9 1657 465 bf 0.0158128 0.151803 0.524225 c 11 9 1668 465 bf 0.0281863 0.253431 0.604902 c 12 9 1679 465 bf 0.00759013 0.0728653 0.45351 c 11 9 1691 465 bf
 0.0158128 0.151803 0.524225 c 12 9 1702 465 bf 0.00759013 0.0728653 0.45351 c 11 9 1714 465 bf 11 9 1725 465 bf 12 9 1736 465 bf 11 9 1748 465 bf 0.0158128 0.151803 0.524225 c 11 9 1759 465 bf 0.00759013 0.0728653 0.45351 c 12 9 1770 465 bf 11 9
 1782 465 bf 11 9 1793 465 bf 12 9 1804 465 bf 11 9 1827 465 bf 11 9 1861 465 bf 11 10 590 474 bf 0.0158128 0.151803 0.524225 c 12 10 601 474 bf 0.0281863 0.253431 0.604902 c 11 10 613 474 bf 0.0158128 0.151803 0.524225 c 11 10 624 474 bf 0.0428922
 0.365196 0.687255 c 12 10 635 474 bf 0.0281863 0.253431 0.604902 c 11 10 647 474 bf 0.0906863 0.594608 0.78125 c 11 10 658 474 bf 0.122549 0.702941 0.786029 c 12 10 669 474 bf 0.0588235 0.486275 0.776471 c 11 10 681 474 bf 0.29326 0.785539 0.529779
 c 11 10 692 474 bf 0.18652 0.763235 0.706618 c 12 10 703 474 bf 0.122549 0.702941 0.786029 c 11 10 715 474 bf 0.18652 0.763235 0.706618 c 11 10 726 474 bf 0.29326 0.785539 0.529779 c 12 10 737 474 bf 0.4 0.807843 0.352941 c 11 10 749 474 bf 11 10
 760 474 bf 0.18652 0.763235 0.706618 c 12 10 771 474 bf 0.122549 0.702941 0.786029 c 11 10 783 474 bf 0.4 0.807843 0.352941 c 12 10 794 474 bf 0.29326 0.785539 0.529779 c 11 10 806 474 bf 0.4 0.807843 0.352941 c 11 10 817 474 bf 0.29326 0.785539
 0.529779 c 12 10 828 474 bf 0.68799 0.869118 0.144608 c 11 10 840 474 bf 0.549755 0.839706 0.244608 c 11 10 851 474 bf 0.29326 0.785539 0.529779 c 12 10 862 474 bf 0.777451 0.791422 0.0796569 c 11 10 874 474 bf 0.18652 0.763235 0.706618 c 11 10 885
 474 bf 0.777451 0.791422 0.0796569 c 12 10 896 474 bf 11 10 908 474 bf 0.549755 0.839706 0.244608 c 11 10 919 474 bf 0.68799 0.869118 0.144608 c 12 10 930 474 bf 0.29326 0.785539 0.529779 c 11 10 942 474 bf 0.68799 0.869118 0.144608 c 11 10 953 474
 bf 0.549755 0.839706 0.244608 c 12 10 964 474 bf 0.68799 0.869118 0.144608 c 11 10 976 474 bf 0.29326 0.785539 0.529779 c 11 10 987 474 bf 0.549755 0.839706 0.244608 c 12 10 998 474 bf 0.802451 0.261275 0.0436275 c 11 10 1010 474 bf 12 10 1021 474
 bf 0.4 0.807843 0.352941 c 11 10 1033 474 bf 0.796569 0.585907 0.0653186 c 11 10 1044 474 bf 0.68799 0.869118 0.144608 c 12 10 1055 474 bf 11 10 1067 474 bf 0.549755 0.839706 0.244608 c 11 10 1078 474 bf 0.68799 0.869118 0.144608 c 12 10 1089 474 bf
 0.549755 0.839706 0.244608 c 11 10 1101 474 bf 0.788113 0.13223 0.0356618 c 11 10 1112 474 bf 0.777451 0.791422 0.0796569 c 12 10 1123 474 bf 0.68799 0.869118 0.144608 c 11 10 1135 474 bf 0.549755 0.839706 0.244608 c 11 10 1146 474 bf 0.29326
 0.785539 0.529779 c 12 10 1157 474 bf 11 10 1169 474 bf 0.549755 0.839706 0.244608 c 11 10 1180 474 bf 0.4 0.807843 0.352941 c 12 10 1191 474 bf 0.777451 0.791422 0.0796569 c 11 10 1203 474 bf 0.18652 0.763235 0.706618 c 11 10 1214 474 bf 0.796569
 0.585907 0.0653186 c 12 10 1225 474 bf 0.777451 0.791422 0.0796569 c 11 10 1237 474 bf 0.29326 0.785539 0.529779 c 12 10 1248 474 bf 0.4 0.807843 0.352941 c 11 10 1260 474 bf 0.18652 0.763235 0.706618 c 11 10 1271 474 bf 0.549755 0.839706 0.244608 c
 12 10 1282 474 bf 0.18652 0.763235 0.706618 c 11 10 1294 474 bf 0.4 0.807843 0.352941 c 11 10 1305 474 bf 0.68799 0.869118 0.144608 c 12 10 1316 474 bf 0.29326 0.785539 0.529779 c 11 10 1328 474 bf 0.4 0.807843 0.352941 c 11 10 1339 474 bf 0.18652
 0.763235 0.706618 c 12 10 1350 474 bf 0.29326 0.785539 0.529779 c 11 10 1362 474 bf 0.4 0.807843 0.352941 c 11 10 1373 474 bf 0.68799 0.869118 0.144608 c 12 10 1384 474 bf 0.18652 0.763235 0.706618 c 11 10 1396 474 bf 0.4 0.807843 0.352941 c 11 10
 1407 474 bf 12 10 1418 474 bf 0.18652 0.763235 0.706618 c 11 10 1430 474 bf 0.29326 0.785539 0.529779 c 11 10 1441 474 bf 0.122549 0.702941 0.786029 c 12 10 1452 474 bf 0.18652 0.763235 0.706618 c 11 10 1464 474 bf 0.29326 0.785539 0.529779 c 12 10
 1475 474 bf 0.549755 0.839706 0.244608 c 11 10 1487 474 bf 0.18652 0.763235 0.706618 c 11 10 1498 474 bf 12 10 1509 474 bf 11 10 1521 474 bf 11 10 1532 474 bf 12 10 1543 474 bf 0.122549 0.702941 0.786029 c 11 10 1555 474 bf 0.0906863 0.594608
 0.78125 c 11 10 1566 474 bf 0.0428922 0.365196 0.687255 c 12 10 1577 474 bf 0.0588235 0.486275 0.776471 c 11 10 1589 474 bf 0.0906863 0.594608 0.78125 c 11 10 1600 474 bf 0.0588235 0.486275 0.776471 c 12 10 1611 474 bf 11 10 1623 474 bf 0.0428922
 0.365196 0.687255 c 11 10 1634 474 bf 0.0281863 0.253431 0.604902 c 12 10 1645 474 bf 0.0428922 0.365196 0.687255 c 11 10 1657 474 bf 0.0281863 0.253431 0.604902 c 11 10 1668 474 bf 0.0158128 0.151803 0.524225 c 12 10 1679 474 bf 0.00759013
 0.0728653 0.45351 c 11 10 1691 474 bf 11 10 1714 474 bf 11 10 1725 474 bf 12 10 1736 474 bf 11 10 1748 474 bf 11 10 1759 474 bf 11 10 1782 474 bf 11 10 1793 474 bf 12 10 1804 474 bf 11 10 1827 474 bf 12 10 1838 474 bf 11 10 1884 474 bf 11 10 590 484
 bf 0.0158128 0.151803 0.524225 c 12 10 601 484 bf 11 10 613 484 bf 0.0281863 0.253431 0.604902 c 11 10 624 484 bf 0.0428922 0.365196 0.687255 c 12 10 635 484 bf 0.0281863 0.253431 0.604902 c 11 10 647 484 bf 0.0906863 0.594608 0.78125 c 11 10 658
 484 bf 0.0588235 0.486275 0.776471 c 12 10 669 484 bf 11 10 681 484 bf 0.122549 0.702941 0.786029 c 11 10 692 484 bf 0.29326 0.785539 0.529779 c 12 10 703 484 bf 0.122549 0.702941 0.786029 c 11 10 715 484 bf 0.18652 0.763235 0.706618 c 11 10 726 484
 bf 0.4 0.807843 0.352941 c 12 10 737 484 bf 0.18652 0.763235 0.706618 c 11 10 749 484 bf 0.549755 0.839706 0.244608 c 11 10 760 484 bf 0.4 0.807843 0.352941 c 12 10 771 484 bf 0.122549 0.702941 0.786029 c 11 10 783 484 bf 0.68799 0.869118 0.144608 c
 12 10 794 484 bf 11 10 806 484 bf 0.29326 0.785539 0.529779 c 11 10 817 484 bf 0.549755 0.839706 0.244608 c 12 10 828 484 bf 0.29326 0.785539 0.529779 c 11 10 840 484 bf 0.4 0.807843 0.352941 c 11 10 851 484 bf 0.549755 0.839706 0.244608 c 12 10 862
 484 bf 11 10 874 484 bf 0.68799 0.869118 0.144608 c 11 10 885 484 bf 0.796569 0.585907 0.0653186 c 12 10 896 484 bf 0.549755 0.839706 0.244608 c 11 10 908 484 bf 0.29326 0.785539 0.529779 c 11 10 919 484 bf 0.68799 0.869118 0.144608 c 12 10 930 484
 bf 0.549755 0.839706 0.244608 c 11 10 942 484 bf 0.68799 0.869118 0.144608 c 11 10 953 484 bf 0.549755 0.839706 0.244608 c 12 10 964 484 bf 0.4 0.807843 0.352941 c 11 10 976 484 bf 0.68799 0.869118 0.144608 c 11 10 987 484 bf 0.29326 0.785539
 0.529779 c 12 10 998 484 bf 0.777451 0.791422 0.0796569 c 11 10 1010 484 bf 0.815686 0.380392 0.0509804 c 12 10 1021 484 bf 0.68799 0.869118 0.144608 c 11 10 1033 484 bf 0.777451 0.791422 0.0796569 c 11 10 1044 484 bf 0.796569 0.585907 0.0653186 c
 12 10 1055 484 bf 11 10 1067 484 bf 0.4 0.807843 0.352941 c 11 10 1078 484 bf 12 10 1089 484 bf 0.796569 0.585907 0.0653186 c 11 10 1101 484 bf 0.777451 0.791422 0.0796569 c 11 10 1112 484 bf 0.68799 0.869118 0.144608 c 12 10 1123 484 bf 11 10 1135
 484 bf 0.4 0.807843 0.352941 c 11 10 1146 484 bf 0.68799 0.869118 0.144608 c 12 10 1157 484 bf 0.4 0.807843 0.352941 c 11 10 1169 484 bf 11 10 1180 484 bf 12 10 1191 484 bf 0.777451 0.791422 0.0796569 c 11 10 1203 484 bf 0.4 0.807843 0.352941 c 11
 10 1214 484 bf 0.68799 0.869118 0.144608 c 12 10 1225 484 bf 0.29326 0.785539 0.529779 c 11 10 1237 484 bf 0.122549 0.702941 0.786029 c 12 10 1248 484 bf 0.4 0.807843 0.352941 c 11 10 1260 484 bf 11 10 1271 484 bf 0.122549 0.702941 0.786029 c 12 10
 1282 484 bf 0.4 0.807843 0.352941 c 11 10 1294 484 bf 0.29326 0.785539 0.529779 c 11 10 1305 484 bf 0.4 0.807843 0.352941 c 12 10 1316 484 bf 0.18652 0.763235 0.706618 c 11 10 1328 484 bf 0.68799 0.869118 0.144608 c 11 10 1339 484 bf 0.4 0.807843
 0.352941 c 12 10 1350 484 bf 11 10 1362 484 bf 0.18652 0.763235 0.706618 c 11 10 1373 484 bf 0.549755 0.839706 0.244608 c 12 10 1384 484 bf 0.68799 0.869118 0.144608 c 11 10 1396 484 bf 0.18652 0.763235 0.706618 c 11 10 1407 484 bf 0.68799 0.869118
 0.144608 c 12 10 1418 484 bf 11 10 1430 484 bf 0.29326 0.785539 0.529779 c 11 10 1441 484 bf 0.549755 0.839706 0.244608 c 12 10 1452 484 bf 0.29326 0.785539 0.529779 c 11 10 1464 484 bf 12 10 1475 484 bf 0.4 0.807843 0.352941 c 11 10 1487 484 bf 11
 10 1498 484 bf 0.18652 0.763235 0.706618 c 12 10 1509 484 bf 0.122549 0.702941 0.786029 c 11 10 1521 484 bf 11 10 1532 484 bf 12 10 1543 484 bf 11 10 1555 484 bf 0.0906863 0.594608 0.78125 c 11 10 1566 484 bf 0.122549 0.702941 0.786029 c 12 10 1577
 484 bf 0.18652 0.763235 0.706618 c 11 10 1589 484 bf 0.0588235 0.486275 0.776471 c 11 10 1600 484 bf 0.0906863 0.594608 0.78125 c 12 10 1611 484 bf 11 10 1623 484 bf 0.0428922 0.365196 0.687255 c 11 10 1634 484 bf 0.0588235 0.486275 0.776471 c 12 10
 1645 484 bf 0.0428922 0.365196 0.687255 c 11 10 1657 484 bf 0.0158128 0.151803 0.524225 c 11 10 1668 484 bf 0.00759013 0.0728653 0.45351 c 12 10 1679 484 bf 11 10 1691 484 bf 12 10 1702 484 bf 11 10 1725 484 bf 12 10 1736 484 bf 11 10 1748 484 bf 11
 10 1759 484 bf 12 10 1770 484 bf 11 10 1793 484 bf 11 10 1861 484 bf 12 10 1872 484 bf 11 10 1952 484 bf 11 10 579 494 bf 11 10 590 494 bf 12 10 601 494 bf 0.0281863 0.253431 0.604902 c 11 10 613 494 bf 0.0428922 0.365196 0.687255 c 11 10 624 494 bf
 12 10 635 494 bf 11 10 647 494 bf 0.0588235 0.486275 0.776471 c 11 10 658 494 bf 0.0428922 0.365196 0.687255 c 12 10 669 494 bf 0.122549 0.702941 0.786029 c 11 10 681 494 bf 0.18652 0.763235 0.706618 c 11 10 692 494 bf 0.29326 0.785539 0.529779 c 12
 10 703 494 bf 0.122549 0.702941 0.786029 c 11 10 715 494 bf 11 10 726 494 bf 0.18652 0.763235 0.706618 c 12 10 737 494 bf 0.4 0.807843 0.352941 c 11 10 749 494 bf 0.122549 0.702941 0.786029 c 11 10 760 494 bf 0.4 0.807843 0.352941 c 12 10 771 494 bf
 0.549755 0.839706 0.244608 c 11 10 783 494 bf 12 10 794 494 bf 0.29326 0.785539 0.529779 c 11 10 806 494 bf 11 10 817 494 bf 0.549755 0.839706 0.244608 c 12 10 828 494 bf 0.4 0.807843 0.352941 c 11 10 840 494 bf 11 10 851 494 bf 0.549755 0.839706
 0.244608 c 12 10 862 494 bf 0.796569 0.585907 0.0653186 c 11 10 874 494 bf 0.68799 0.869118 0.144608 c 11 10 885 494 bf 0.777451 0.791422 0.0796569 c 12 10 896 494 bf 0.549755 0.839706 0.244608 c 11 10 908 494 bf 11 10 919 494 bf 12 10 930 494 bf 11
 10 942 494 bf 0.796569 0.585907 0.0653186 c 11 10 953 494 bf 0.802451 0.261275 0.0436275 c 12 10 964 494 bf 0.796569 0.585907 0.0653186 c 11 10 976 494 bf 0.29326 0.785539 0.529779 c 11 10 987 494 bf 0.68799 0.869118 0.144608 c 12 10 998 494 bf
 0.815686 0.380392 0.0509804 c 11 10 1010 494 bf 0.777451 0.791422 0.0796569 c 12 10 1021 494 bf 0.815686 0.380392 0.0509804 c 11 10 1033 494 bf 0.4 0.807843 0.352941 c 11 10 1044 494 bf 0.549755 0.839706 0.244608 c 12 10 1055 494 bf 0.68799 0.869118
 0.144608 c 11 10 1067 494 bf 0.796569 0.585907 0.0653186 c 11 10 1078 494 bf 0.802451 0.261275 0.0436275 c 12 10 1089 494 bf 0.815686 0.380392 0.0509804 c 11 10 1101 494 bf 0.777451 0.791422 0.0796569 c 11 10 1112 494 bf 0.68799 0.869118 0.144608 c
 12 10 1123 494 bf 0.4 0.807843 0.352941 c 11 10 1135 494 bf 0.68799 0.869118 0.144608 c 11 10 1146 494 bf 0.777451 0.791422 0.0796569 c 12 10 1157 494 bf 0.549755 0.839706 0.244608 c 11 10 1169 494 bf 0.29326 0.785539 0.529779 c 11 10 1180 494 bf
 0.549755 0.839706 0.244608 c 12 10 1191 494 bf 0.4 0.807843 0.352941 c 11 10 1203 494 bf 11 10 1214 494 bf 12 10 1225 494 bf 0.18652 0.763235 0.706618 c 11 10 1237 494 bf 0.4 0.807843 0.352941 c 12 10 1248 494 bf 11 10 1260 494 bf 11 10 1271 494 bf
 0.549755 0.839706 0.244608 c 12 10 1282 494 bf 0.18652 0.763235 0.706618 c 11 10 1294 494 bf 0.68799 0.869118 0.144608 c 11 10 1305 494 bf 0.29326 0.785539 0.529779 c 12 10 1316 494 bf 0.68799 0.869118 0.144608 c 11 10 1328 494 bf 0.29326 0.785539
 0.529779 c 11 10 1339 494 bf 0.68799 0.869118 0.144608 c 12 10 1350 494 bf 0.549755 0.839706 0.244608 c 11 10 1362 494 bf 0.4 0.807843 0.352941 c 11 10 1373 494 bf 0.777451 0.791422 0.0796569 c 12 10 1384 494 bf 0.68799 0.869118 0.144608 c 11 10
 1396 494 bf 0.4 0.807843 0.352941 c 11 10 1407 494 bf 12 10 1418 494 bf 0.549755 0.839706 0.244608 c 11 10 1430 494 bf 0.4 0.807843 0.352941 c 11 10 1441 494 bf 0.18652 0.763235 0.706618 c 12 10 1452 494 bf 0.122549 0.702941 0.786029 c 11 10 1464
 494 bf 0.549755 0.839706 0.244608 c 12 10 1475 494 bf 0.29326 0.785539 0.529779 c 11 10 1487 494 bf 11 10 1498 494 bf 0.0588235 0.486275 0.776471 c 12 10 1509 494 bf 11 10 1521 494 bf 0.122549 0.702941 0.786029 c 11 10 1532 494 bf 0.18652 0.763235
 0.706618 c 12 10 1543 494 bf 0.0906863 0.594608 0.78125 c 11 10 1555 494 bf 0.0588235 0.486275 0.776471 c 11 10 1566 494 bf 0.122549 0.702941 0.786029 c 12 10 1577 494 bf 0.0428922 0.365196 0.687255 c 11 10 1589 494 bf 0.0281863 0.253431 0.604902 c
 11 10 1600 494 bf 12 10 1611 494 bf 0.0588235 0.486275 0.776471 c 11 10 1623 494 bf 0.0281863 0.253431 0.604902 c 11 10 1634 494 bf 12 10 1645 494 bf 0.0158128 0.151803 0.524225 c 11 10 1657 494 bf 11 10 1668 494 bf 0.00759013 0.0728653 0.45351 c 12
 10 1679 494 bf 0.0158128 0.151803 0.524225 c 11 10 1691 494 bf 0.00759013 0.0728653 0.45351 c 12 10 1702 494 bf 11 10 1714 494 bf 11 10 1725 494 bf 12 10 1736 494 bf 11 10 1748 494 bf 11 10 1759 494 bf 12 10 1770 494 bf 11 10 1782 494 bf 11 10 1793
 494 bf 12 10 1804 494 bf 11 10 1827 494 bf 12 10 1906 494 bf 11 9 579 504 bf 11 9 590 504 bf 0.0158128 0.151803 0.524225 c 12 9 601 504 bf 11 9 613 504 bf 0.0281863 0.253431 0.604902 c 11 9 624 504 bf 12 9 635 504 bf 0.0428922 0.365196 0.687255 c 11
 9 647 504 bf 11 9 658 504 bf 0.0588235 0.486275 0.776471 c 12 9 669 504 bf 0.0906863 0.594608 0.78125 c 11 9 681 504 bf 0.122549 0.702941 0.786029 c 11 9 692 504 bf 0.0906863 0.594608 0.78125 c 12 9 703 504 bf 0.4 0.807843 0.352941 c 11 9 715 504 bf
 0.18652 0.763235 0.706618 c 11 9 726 504 bf 0.4 0.807843 0.352941 c 12 9 737 504 bf 0.18652 0.763235 0.706618 c 11 9 749 504 bf 11 9 760 504 bf 12 9 771 504 bf 0.549755 0.839706 0.244608 c 11 9 783 504 bf 0.4 0.807843 0.352941 c 12 9 794 504 bf 11 9
 806 504 bf 0.29326 0.785539 0.529779 c 11 9 817 504 bf 0.4 0.807843 0.352941 c 12 9 828 504 bf 0.29326 0.785539 0.529779 c 11 9 840 504 bf 0.68799 0.869118 0.144608 c 11 9 851 504 bf 12 9 862 504 bf 11 9 874 504 bf 11 9 885 504 bf 12 9 896 504 bf
 0.549755 0.839706 0.244608 c 11 9 908 504 bf 0.4 0.807843 0.352941 c 11 9 919 504 bf 0.68799 0.869118 0.144608 c 12 9 930 504 bf 11 9 942 504 bf 11 9 953 504 bf 12 9 964 504 bf 0.777451 0.791422 0.0796569 c 11 9 976 504 bf 0.796569 0.585907
 0.0653186 c 11 9 987 504 bf 0.777451 0.791422 0.0796569 c 12 9 998 504 bf 11 9 1010 504 bf 0.68799 0.869118 0.144608 c 12 9 1021 504 bf 11 9 1033 504 bf 0.796569 0.585907 0.0653186 c 11 9 1044 504 bf 12 9 1055 504 bf 0.777451 0.791422 0.0796569 c 11
 9 1067 504 bf 0.796569 0.585907 0.0653186 c 11 9 1078 504 bf 12 9 1089 504 bf 0.68799 0.869118 0.144608 c 11 9 1101 504 bf 0.777451 0.791422 0.0796569 c 11 9 1112 504 bf 0.549755 0.839706 0.244608 c 12 9 1123 504 bf 11 9 1135 504 bf 0.68799 0.869118
 0.144608 c 11 9 1146 504 bf 0.4 0.807843 0.352941 c 12 9 1157 504 bf 0.68799 0.869118 0.144608 c 11 9 1169 504 bf 11 9 1180 504 bf 0.777451 0.791422 0.0796569 c 12 9 1191 504 bf 0.4 0.807843 0.352941 c 11 9 1203 504 bf 0.777451 0.791422 0.0796569 c
 11 9 1214 504 bf 0.549755 0.839706 0.244608 c 12 9 1225 504 bf 0.796569 0.585907 0.0653186 c 11 9 1237 504 bf 0.4 0.807843 0.352941 c 12 9 1248 504 bf 0.777451 0.791422 0.0796569 c 11 9 1260 504 bf 0.29326 0.785539 0.529779 c 11 9 1271 504 bf
 0.68799 0.869118 0.144608 c 12 9 1282 504 bf 0.549755 0.839706 0.244608 c 11 9 1294 504 bf 0.29326 0.785539 0.529779 c 11 9 1305 504 bf 0.18652 0.763235 0.706618 c 12 9 1316 504 bf 0.4 0.807843 0.352941 c 11 9 1328 504 bf 0.68799 0.869118 0.144608 c
 11 9 1339 504 bf 0.777451 0.791422 0.0796569 c 12 9 1350 504 bf 0.4 0.807843 0.352941 c 11 9 1362 504 bf 11 9 1373 504 bf 12 9 1384 504 bf 0.29326 0.785539 0.529779 c 11 9 1396 504 bf 0.68799 0.869118 0.144608 c 11 9 1407 504 bf 0.29326 0.785539
 0.529779 c 12 9 1418 504 bf 0.68799 0.869118 0.144608 c 11 9 1430 504 bf 0.4 0.807843 0.352941 c 11 9 1441 504 bf 0.29326 0.785539 0.529779 c 12 9 1452 504 bf 0.18652 0.763235 0.706618 c 11 9 1464 504 bf 0.4 0.807843 0.352941 c 12 9 1475 504 bf
 0.18652 0.763235 0.706618 c 11 9 1487 504 bf 0.4 0.807843 0.352941 c 11 9 1498 504 bf 0.122549 0.702941 0.786029 c 12 9 1509 504 bf 0.18652 0.763235 0.706618 c 11 9 1521 504 bf 0.0906863 0.594608 0.78125 c 11 9 1532 504 bf 0.18652 0.763235 0.706618
 c 12 9 1543 504 bf 0.0906863 0.594608 0.78125 c 11 9 1555 504 bf 0.0588235 0.486275 0.776471 c 11 9 1566 504 bf 0.18652 0.763235 0.706618 c 12 9 1577 504 bf 0.0906863 0.594608 0.78125 c 11 9 1589 504 bf 0.0588235 0.486275 0.776471 c 11 9 1600 504 bf
 0.0428922 0.365196 0.687255 c 12 9 1611 504 bf 11 9 1623 504 bf 11 9 1634 504 bf 12 9 1645 504 bf 0.0281863 0.253431 0.604902 c 11 9 1657 504 bf 0.0158128 0.151803 0.524225 c 11 9 1668 504 bf 12 9 1679 504 bf 0.00759013 0.0728653 0.45351 c 11 9 1691
 504 bf 12 9 1702 504 bf 11 9 1714 504 bf 11 9 1725 504 bf 0.0158128 0.151803 0.524225 c 12 9 1736 504 bf 0.00759013 0.0728653 0.45351 c 11 9 1748 504 bf 11 9 1759 504 bf 11 9 1793 504 bf 12 9 1804 504 bf 11 9 1827 504 bf 12 9 1838 504 bf 12 9 1872
 504 bf 11 9 1884 504 bf 11 10 579 513 bf 11 10 590 513 bf 0.0158128 0.151803 0.524225 c 12 10 601 513 bf 11 10 613 513 bf 0.0281863 0.253431 0.604902 c 11 10 624 513 bf 12 10 635 513 bf 0.0428922 0.365196 0.687255 c 11 10 647 513 bf 0.122549
 0.702941 0.786029 c 11 10 658 513 bf 0.0428922 0.365196 0.687255 c 12 10 669 513 bf 11 10 681 513 bf 0.0906863 0.594608 0.78125 c 11 10 692 513 bf 0.29326 0.785539 0.529779 c 12 10 703 513 bf 0.122549 0.702941 0.786029 c 11 10 715 513 bf 11 10 726
 513 bf 0.18652 0.763235 0.706618 c 12 10 737 513 bf 0.549755 0.839706 0.244608 c 11 10 749 513 bf 0.29326 0.785539 0.529779 c 11 10 760 513 bf 12 10 771 513 bf 0.4 0.807843 0.352941 c 11 10 783 513 bf 0.68799 0.869118 0.144608 c 12 10 794 513 bf 0.4
 0.807843 0.352941 c 11 10 806 513 bf 11 10 817 513 bf 0.549755 0.839706 0.244608 c 12 10 828 513 bf 0.29326 0.785539 0.529779 c 11 10 840 513 bf 0.796569 0.585907 0.0653186 c 11 10 851 513 bf 12 10 862 513 bf 0.4 0.807843 0.352941 c 11 10 874 513 bf
 0.549755 0.839706 0.244608 c 11 10 885 513 bf 0.68799 0.869118 0.144608 c 12 10 896 513 bf 11 10 908 513 bf 11 10 919 513 bf 0.777451 0.791422 0.0796569 c 12 10 930 513 bf 0.68799 0.869118 0.144608 c 11 10 942 513 bf 11 10 953 513 bf 0.796569
 0.585907 0.0653186 c 12 10 964 513 bf 0.549755 0.839706 0.244608 c 11 10 976 513 bf 0.68799 0.869118 0.144608 c 11 10 987 513 bf 0.777451 0.791422 0.0796569 c 12 10 998 513 bf 0.549755 0.839706 0.244608 c 11 10 1010 513 bf 0.68799 0.869118 0.144608
 c 12 10 1021 513 bf 0.549755 0.839706 0.244608 c 11 10 1033 513 bf 11 10 1044 513 bf 0.68799 0.869118 0.144608 c 12 10 1055 513 bf 0.549755 0.839706 0.244608 c 11 10 1067 513 bf 11 10 1078 513 bf 0.68799 0.869118 0.144608 c 12 10 1089 513 bf
 0.777451 0.791422 0.0796569 c 11 10 1101 513 bf 0.549755 0.839706 0.244608 c 11 10 1112 513 bf 0.4 0.807843 0.352941 c 12 10 1123 513 bf 0.68799 0.869118 0.144608 c 11 10 1135 513 bf 11 10 1146 513 bf 12 10 1157 513 bf 0.4 0.807843 0.352941 c 11 10
 1169 513 bf 11 10 1180 513 bf 0.68799 0.869118 0.144608 c 12 10 1191 513 bf 0.777451 0.791422 0.0796569 c 11 10 1203 513 bf 0.68799 0.869118 0.144608 c 11 10 1214 513 bf 0.4 0.807843 0.352941 c 12 10 1225 513 bf 0.777451 0.791422 0.0796569 c 11 10
 1237 513 bf 0.4 0.807843 0.352941 c 12 10 1248 513 bf 0.68799 0.869118 0.144608 c 11 10 1260 513 bf 0.4 0.807843 0.352941 c 11 10 1271 513 bf 0.68799 0.869118 0.144608 c 12 10 1282 513 bf 0.4 0.807843 0.352941 c 11 10 1294 513 bf 11 10 1305 513 bf
 12 10 1316 513 bf 0.549755 0.839706 0.244608 c 11 10 1328 513 bf 0.4 0.807843 0.352941 c 11 10 1339 513 bf 0.777451 0.791422 0.0796569 c 12 10 1350 513 bf 0.4 0.807843 0.352941 c 11 10 1362 513 bf 11 10 1373 513 bf 0.549755 0.839706 0.244608 c 12 10
 1384 513 bf 0.29326 0.785539 0.529779 c 11 10 1396 513 bf 0.549755 0.839706 0.244608 c 11 10 1407 513 bf 0.4 0.807843 0.352941 c 12 10 1418 513 bf 0.549755 0.839706 0.244608 c 11 10 1430 513 bf 0.4 0.807843 0.352941 c 11 10 1441 513 bf 0.29326
 0.785539 0.529779 c 12 10 1452 513 bf 0.4 0.807843 0.352941 c 11 10 1464 513 bf 0.29326 0.785539 0.529779 c 12 10 1475 513 bf 11 10 1487 513 bf 0.18652 0.763235 0.706618 c 11 10 1498 513 bf 12 10 1509 513 bf 0.29326 0.785539 0.529779 c 11 10 1521
 513 bf 0.0588235 0.486275 0.776471 c 11 10 1532 513 bf 0.0906863 0.594608 0.78125 c 12 10 1543 513 bf 0.122549 0.702941 0.786029 c 11 10 1555 513 bf 11 10 1566 513 bf 0.0428922 0.365196 0.687255 c 12 10 1577 513 bf 0.0588235 0.486275 0.776471 c 11
 10 1589 513 bf 0.0906863 0.594608 0.78125 c 11 10 1600 513 bf 0.0428922 0.365196 0.687255 c 12 10 1611 513 bf 0.0588235 0.486275 0.776471 c 11 10 1623 513 bf 0.0281863 0.253431 0.604902 c 11 10 1634 513 bf 12 10 1645 513 bf 11 10 1657 513 bf
 0.0158128 0.151803 0.524225 c 11 10 1668 513 bf 12 10 1679 513 bf 11 10 1691 513 bf 0.00759013 0.0728653 0.45351 c 12 10 1702 513 bf 11 10 1714 513 bf 11 10 1725 513 bf 12 10 1736 513 bf 11 10 1748 513 bf 11 10 1782 513 bf 11 10 1793 513 bf 11 10
 1816 513 bf 12 10 1929 513 bf 11 10 590 523 bf 12 10 601 523 bf 0.0158128 0.151803 0.524225 c 11 10 613 523 bf 0.0281863 0.253431 0.604902 c 11 10 624 523 bf 0.0428922 0.365196 0.687255 c 12 10 635 523 bf 0.0281863 0.253431 0.604902 c 11 10 647 523
 bf 0.122549 0.702941 0.786029 c 11 10 658 523 bf 0.0906863 0.594608 0.78125 c 12 10 669 523 bf 0.122549 0.702941 0.786029 c 11 10 681 523 bf 11 10 692 523 bf 12 10 703 523 bf 0.4 0.807843 0.352941 c 11 10 715 523 bf 11 10 726 523 bf 0.29326 0.785539
 0.529779 c 12 10 737 523 bf 0.18652 0.763235 0.706618 c 11 10 749 523 bf 11 10 760 523 bf 0.29326 0.785539 0.529779 c 12 10 771 523 bf 0.4 0.807843 0.352941 c 11 10 783 523 bf 0.68799 0.869118 0.144608 c 12 10 794 523 bf 0.29326 0.785539 0.529779 c
 11 10 806 523 bf 11 10 817 523 bf 0.4 0.807843 0.352941 c 12 10 828 523 bf 0.549755 0.839706 0.244608 c 11 10 840 523 bf 0.29326 0.785539 0.529779 c 11 10 851 523 bf 0.4 0.807843 0.352941 c 12 10 862 523 bf 0.796569 0.585907 0.0653186 c 11 10 874
 523 bf 0.68799 0.869118 0.144608 c 11 10 885 523 bf 12 10 896 523 bf 0.777451 0.791422 0.0796569 c 11 10 908 523 bf 0.4 0.807843 0.352941 c 11 10 919 523 bf 12 10 930 523 bf 0.68799 0.869118 0.144608 c 11 10 942 523 bf 0.777451 0.791422 0.0796569 c
 11 10 953 523 bf 0.68799 0.869118 0.144608 c 12 10 964 523 bf 0.549755 0.839706 0.244608 c 11 10 976 523 bf 0.4 0.807843 0.352941 c 11 10 987 523 bf 0.549755 0.839706 0.244608 c 12 10 998 523 bf 0.796569 0.585907 0.0653186 c 11 10 1010 523 bf
 0.29326 0.785539 0.529779 c 12 10 1021 523 bf 0.549755 0.839706 0.244608 c 11 10 1033 523 bf 0.796569 0.585907 0.0653186 c 11 10 1044 523 bf 0.549755 0.839706 0.244608 c 12 10 1055 523 bf 0.796569 0.585907 0.0653186 c 11 10 1067 523 bf 0.777451
 0.791422 0.0796569 c 11 10 1078 523 bf 0.815686 0.380392 0.0509804 c 12 10 1089 523 bf 0.777451 0.791422 0.0796569 c 11 10 1101 523 bf 11 10 1112 523 bf 0.815686 0.380392 0.0509804 c 12 10 1123 523 bf 0.4 0.807843 0.352941 c 11 10 1135 523 bf
 0.68799 0.869118 0.144608 c 11 10 1146 523 bf 0.796569 0.585907 0.0653186 c 12 10 1157 523 bf 0.4 0.807843 0.352941 c 11 10 1169 523 bf 11 10 1180 523 bf 0.68799 0.869118 0.144608 c 12 10 1191 523 bf 0.796569 0.585907 0.0653186 c 11 10 1203 523 bf
 0.549755 0.839706 0.244608 c 11 10 1214 523 bf 0.777451 0.791422 0.0796569 c 12 10 1225 523 bf 0.549755 0.839706 0.244608 c 11 10 1237 523 bf 0.777451 0.791422 0.0796569 c 12 10 1248 523 bf 0.68799 0.869118 0.144608 c 11 10 1260 523 bf 0.4 0.807843
 0.352941 c 11 10 1271 523 bf 0.68799 0.869118 0.144608 c 12 10 1282 523 bf 0.796569 0.585907 0.0653186 c 11 10 1294 523 bf 0.549755 0.839706 0.244608 c 11 10 1305 523 bf 12 10 1316 523 bf 0.796569 0.585907 0.0653186 c 11 10 1328 523 bf 0.68799
 0.869118 0.144608 c 11 10 1339 523 bf 0.549755 0.839706 0.244608 c 12 10 1350 523 bf 11 10 1362 523 bf 0.4 0.807843 0.352941 c 11 10 1373 523 bf 12 10 1384 523 bf 0.29326 0.785539 0.529779 c 11 10 1396 523 bf 0.4 0.807843 0.352941 c 11 10 1407 523
 bf 0.549755 0.839706 0.244608 c 12 10 1418 523 bf 0.18652 0.763235 0.706618 c 11 10 1430 523 bf 11 10 1441 523 bf 0.29326 0.785539 0.529779 c 12 10 1452 523 bf 11 10 1464 523 bf 0.0906863 0.594608 0.78125 c 12 10 1475 523 bf 0.29326 0.785539
 0.529779 c 11 10 1487 523 bf 0.0588235 0.486275 0.776471 c 11 10 1498 523 bf 0.18652 0.763235 0.706618 c 12 10 1509 523 bf 0.122549 0.702941 0.786029 c 11 10 1521 523 bf 0.18652 0.763235 0.706618 c 11 10 1532 523 bf 0.29326 0.785539 0.529779 c 12 10
 1543 523 bf 0.122549 0.702941 0.786029 c 11 10 1555 523 bf 0.0588235 0.486275 0.776471 c 11 10 1566 523 bf 0.122549 0.702941 0.786029 c 12 10 1577 523 bf 0.0588235 0.486275 0.776471 c 11 10 1589 523 bf 0.0428922 0.365196 0.687255 c 11 10 1600 523 bf
 0.0588235 0.486275 0.776471 c 12 10 1611 523 bf 0.0281863 0.253431 0.604902 c 11 10 1623 523 bf 11 10 1634 523 bf 0.0588235 0.486275 0.776471 c 12 10 1645 523 bf 0.0281863 0.253431 0.604902 c 11 10 1657 523 bf 11 10 1668 523 bf 12 10 1679 523 bf
 0.00759013 0.0728653 0.45351 c 11 10 1691 523 bf 12 10 1702 523 bf 11 10 1714 523 bf 11 10 1725 523 bf 12 10 1736 523 bf 11 10 1748 523 bf 11 10 1759 523 bf 12 10 1770 523 bf 11 10 1793 523 bf 12 10 1804 523 bf 11 10 1816 523 bf 11 10 1827 523 bf 12
 10 1838 523 bf 11 10 1850 523 bf 11 10 1861 523 bf 11 10 1884 523 bf 11 10 1895 523 bf 11 10 590 533 bf 0.0158128 0.151803 0.524225 c 12 10 601 533 bf 11 10 613 533 bf 11 10 624 533 bf 0.0428922 0.365196 0.687255 c 12 10 635 533 bf 0.0281863
 0.253431 0.604902 c 11 10 647 533 bf 0.0906863 0.594608 0.78125 c 11 10 658 533 bf 0.122549 0.702941 0.786029 c 12 10 669 533 bf 11 10 681 533 bf 11 10 692 533 bf 0.4 0.807843 0.352941 c 12 10 703 533 bf 0.29326 0.785539 0.529779 c 11 10 715 533 bf
 0.18652 0.763235 0.706618 c 11 10 726 533 bf 0.29326 0.785539 0.529779 c 12 10 737 533 bf 11 10 749 533 bf 0.18652 0.763235 0.706618 c 11 10 760 533 bf 0.549755 0.839706 0.244608 c 12 10 771 533 bf 0.4 0.807843 0.352941 c 11 10 783 533 bf 12 10 794
 533 bf 11 10 806 533 bf 0.777451 0.791422 0.0796569 c 11 10 817 533 bf 0.549755 0.839706 0.244608 c 12 10 828 533 bf 11 10 840 533 bf 11 10 851 533 bf 12 10 862 533 bf 11 10 874 533 bf 0.4 0.807843 0.352941 c 11 10 885 533 bf 0.68799 0.869118
 0.144608 c 12 10 896 533 bf 0.815686 0.380392 0.0509804 c 11 10 908 533 bf 0.777451 0.791422 0.0796569 c 11 10 919 533 bf 0.796569 0.585907 0.0653186 c 12 10 930 533 bf 0.549755 0.839706 0.244608 c 11 10 942 533 bf 0.777451 0.791422 0.0796569 c 11
 10 953 533 bf 12 10 964 533 bf 0.796569 0.585907 0.0653186 c 11 10 976 533 bf 0.68799 0.869118 0.144608 c 11 10 987 533 bf 0.796569 0.585907 0.0653186 c 12 10 998 533 bf 0.68799 0.869118 0.144608 c 11 10 1010 533 bf 0.815686 0.380392 0.0509804 c 12
 10 1021 533 bf 0.68799 0.869118 0.144608 c 11 10 1033 533 bf 0.777451 0.791422 0.0796569 c 11 10 1044 533 bf 0.549755 0.839706 0.244608 c 12 10 1055 533 bf 0.68799 0.869118 0.144608 c 11 10 1067 533 bf 0.796569 0.585907 0.0653186 c 11 10 1078 533 bf
 0.68799 0.869118 0.144608 c 12 10 1089 533 bf 0.549755 0.839706 0.244608 c 11 10 1101 533 bf 0.788113 0.13223 0.0356618 c 11 10 1112 533 bf 0.777451 0.791422 0.0796569 c 12 10 1123 533 bf 0.796569 0.585907 0.0653186 c 11 10 1135 533 bf 11 10 1146
 533 bf 12 10 1157 533 bf 11 10 1169 533 bf 0.4 0.807843 0.352941 c 11 10 1180 533 bf 0.802451 0.261275 0.0436275 c 12 10 1191 533 bf 0.796569 0.585907 0.0653186 c 11 10 1203 533 bf 11 10 1214 533 bf 0.777451 0.791422 0.0796569 c 12 10 1225 533 bf
 0.68799 0.869118 0.144608 c 11 10 1237 533 bf 12 10 1248 533 bf 0.777451 0.791422 0.0796569 c 11 10 1260 533 bf 0.68799 0.869118 0.144608 c 11 10 1271 533 bf 0.777451 0.791422 0.0796569 c 12 10 1282 533 bf 0.68799 0.869118 0.144608 c 11 10 1294 533
 bf 11 10 1305 533 bf 0.549755 0.839706 0.244608 c 12 10 1316 533 bf 0.4 0.807843 0.352941 c 11 10 1328 533 bf 0.777451 0.791422 0.0796569 c 11 10 1339 533 bf 0.4 0.807843 0.352941 c 12 10 1350 533 bf 0.777451 0.791422 0.0796569 c 11 10 1362 533 bf
 0.68799 0.869118 0.144608 c 11 10 1373 533 bf 0.4 0.807843 0.352941 c 12 10 1384 533 bf 0.18652 0.763235 0.706618 c 11 10 1396 533 bf 11 10 1407 533 bf 12 10 1418 533 bf 11 10 1430 533 bf 11 10 1441 533 bf 0.4 0.807843 0.352941 c 12 10 1452 533 bf
 11 10 1464 533 bf 0.18652 0.763235 0.706618 c 12 10 1475 533 bf 0.122549 0.702941 0.786029 c 11 10 1487 533 bf 11 10 1498 533 bf 0.18652 0.763235 0.706618 c 12 10 1509 533 bf 0.0588235 0.486275 0.776471 c 11 10 1521 533 bf 0.29326 0.785539 0.529779
 c 11 10 1532 533 bf 0.122549 0.702941 0.786029 c 12 10 1543 533 bf 0.0588235 0.486275 0.776471 c 11 10 1555 533 bf 0.0906863 0.594608 0.78125 c 11 10 1566 533 bf 0.122549 0.702941 0.786029 c 12 10 1577 533 bf 0.0588235 0.486275 0.776471 c 11 10 1589
 533 bf 0.0906863 0.594608 0.78125 c 11 10 1600 533 bf 0.122549 0.702941 0.786029 c 12 10 1611 533 bf 0.0428922 0.365196 0.687255 c 11 10 1623 533 bf 0.0281863 0.253431 0.604902 c 11 10 1634 533 bf 0.0428922 0.365196 0.687255 c 12 10 1645 533 bf
 0.0281863 0.253431 0.604902 c 11 10 1657 533 bf 0.00759013 0.0728653 0.45351 c 11 10 1668 533 bf 0.0281863 0.253431 0.604902 c 12 10 1679 533 bf 0.00759013 0.0728653 0.45351 c 11 10 1691 533 bf 12 10 1702 533 bf 11 10 1714 533 bf 0.0158128 0.151803
 0.524225 c 11 10 1725 533 bf 0.00759013 0.0728653 0.45351 c 12 10 1736 533 bf 11 10 1748 533 bf 11 10 1782 533 bf 11 10 1793 533 bf 12 10 1804 533 bf 12 10 1963 533 bf 11 9 590 543 bf 0.0281863 0.253431 0.604902 c 12 9 601 543 bf 11 9 613 543 bf
 0.0158128 0.151803 0.524225 c 11 9 624 543 bf 0.0588235 0.486275 0.776471 c 12 9 635 543 bf 0.0428922 0.365196 0.687255 c 11 9 647 543 bf 0.0588235 0.486275 0.776471 c 11 9 658 543 bf 12 9 669 543 bf 0.0906863 0.594608 0.78125 c 11 9 681 543 bf
 0.122549 0.702941 0.786029 c 11 9 692 543 bf 0.18652 0.763235 0.706618 c 12 9 703 543 bf 0.29326 0.785539 0.529779 c 11 9 715 543 bf 11 9 726 543 bf 0.18652 0.763235 0.706618 c 12 9 737 543 bf 0.29326 0.785539 0.529779 c 11 9 749 543 bf 0.549755
 0.839706 0.244608 c 11 9 760 543 bf 0.68799 0.869118 0.144608 c 12 9 771 543 bf 0.4 0.807843 0.352941 c 11 9 783 543 bf 0.29326 0.785539 0.529779 c 12 9 794 543 bf 0.549755 0.839706 0.244608 c 11 9 806 543 bf 0.68799 0.869118 0.144608 c 11 9 817 543
 bf 0.549755 0.839706 0.244608 c 12 9 828 543 bf 0.68799 0.869118 0.144608 c 11 9 840 543 bf 0.549755 0.839706 0.244608 c 11 9 851 543 bf 0.68799 0.869118 0.144608 c 12 9 862 543 bf 0.549755 0.839706 0.244608 c 11 9 874 543 bf 0.29326 0.785539
 0.529779 c 11 9 885 543 bf 0.549755 0.839706 0.244608 c 12 9 896 543 bf 0.68799 0.869118 0.144608 c 11 9 908 543 bf 0.796569 0.585907 0.0653186 c 11 9 919 543 bf 0.549755 0.839706 0.244608 c 12 9 930 543 bf 0.796569 0.585907 0.0653186 c 11 9 942 543
 bf 0.549755 0.839706 0.244608 c 11 9 953 543 bf 12 9 964 543 bf 0.777451 0.791422 0.0796569 c 11 9 976 543 bf 11 9 987 543 bf 0.4 0.807843 0.352941 c 12 9 998 543 bf 0.777451 0.791422 0.0796569 c 11 9 1010 543 bf 0.549755 0.839706 0.244608 c 12 9
 1021 543 bf 0.815686 0.380392 0.0509804 c 11 9 1033 543 bf 0.68799 0.869118 0.144608 c 11 9 1044 543 bf 0.777451 0.791422 0.0796569 c 12 9 1055 543 bf 0.796569 0.585907 0.0653186 c 11 9 1067 543 bf 11 9 1078 543 bf 12 9 1089 543 bf 0.815686 0.380392
 0.0509804 c 11 9 1101 543 bf 0.796569 0.585907 0.0653186 c 11 9 1112 543 bf 0.815686 0.380392 0.0509804 c 12 9 1123 543 bf 0.796569 0.585907 0.0653186 c 11 9 1135 543 bf 0.549755 0.839706 0.244608 c 11 9 1146 543 bf 0.68799 0.869118 0.144608 c 12 9
 1157 543 bf 0.549755 0.839706 0.244608 c 11 9 1169 543 bf 0.815686 0.380392 0.0509804 c 11 9 1180 543 bf 0.777451 0.791422 0.0796569 c 12 9 1191 543 bf 0.796569 0.585907 0.0653186 c 11 9 1203 543 bf 0.68799 0.869118 0.144608 c 11 9 1214 543 bf
 0.777451 0.791422 0.0796569 c 12 9 1225 543 bf 0.796569 0.585907 0.0653186 c 11 9 1237 543 bf 0.815686 0.380392 0.0509804 c 12 9 1248 543 bf 0.68799 0.869118 0.144608 c 11 9 1260 543 bf 0.549755 0.839706 0.244608 c 11 9 1271 543 bf 0.68799 0.869118
 0.144608 c 12 9 1282 543 bf 0.777451 0.791422 0.0796569 c 11 9 1294 543 bf 0.68799 0.869118 0.144608 c 11 9 1305 543 bf 0.549755 0.839706 0.244608 c 12 9 1316 543 bf 0.777451 0.791422 0.0796569 c 11 9 1328 543 bf 0.68799 0.869118 0.144608 c 11 9
 1339 543 bf 0.4 0.807843 0.352941 c 12 9 1350 543 bf 0.29326 0.785539 0.529779 c 11 9 1362 543 bf 11 9 1373 543 bf 0.4 0.807843 0.352941 c 12 9 1384 543 bf 11 9 1396 543 bf 0.29326 0.785539 0.529779 c 11 9 1407 543 bf 0.549755 0.839706 0.244608 c 12
 9 1418 543 bf 0.68799 0.869118 0.144608 c 11 9 1430 543 bf 0.29326 0.785539 0.529779 c 11 9 1441 543 bf 0.18652 0.763235 0.706618 c 12 9 1452 543 bf 0.122549 0.702941 0.786029 c 11 9 1464 543 bf 12 9 1475 543 bf 11 9 1487 543 bf 0.0906863 0.594608
 0.78125 c 11 9 1498 543 bf 0.122549 0.702941 0.786029 c 12 9 1509 543 bf 0.0906863 0.594608 0.78125 c 11 9 1521 543 bf 0.122549 0.702941 0.786029 c 11 9 1532 543 bf 12 9 1543 543 bf 11 9 1555 543 bf 0.18652 0.763235 0.706618 c 11 9 1566 543 bf
 0.0588235 0.486275 0.776471 c 12 9 1577 543 bf 0.0906863 0.594608 0.78125 c 11 9 1589 543 bf 0.0588235 0.486275 0.776471 c 11 9 1600 543 bf 0.0428922 0.365196 0.687255 c 12 9 1611 543 bf 0.0588235 0.486275 0.776471 c 11 9 1623 543 bf 11 9 1634 543
 bf 0.0428922 0.365196 0.687255 c 12 9 1645 543 bf 0.0281863 0.253431 0.604902 c 11 9 1657 543 bf 0.00759013 0.0728653 0.45351 c 11 9 1668 543 bf 12 9 1679 543 bf 11 9 1691 543 bf 12 9 1702 543 bf 11 9 1714 543 bf 11 9 1725 543 bf 12 9 1736 543 bf 11
 9 1759 543 bf 11 9 1782 543 bf 12 9 1804 543 bf 11 9 1816 543 bf 11 9 1895 543 bf 12 10 567 552 bf 11 10 579 552 bf 0.0158128 0.151803 0.524225 c 12 10 601 552 bf 0.0281863 0.253431 0.604902 c 11 10 613 552 bf 0.0428922 0.365196 0.687255 c 11 10 624
 552 bf 0.0588235 0.486275 0.776471 c 12 10 635 552 bf 11 10 647 552 bf 11 10 658 552 bf 12 10 669 552 bf 0.0906863 0.594608 0.78125 c 11 10 681 552 bf 0.18652 0.763235 0.706618 c 11 10 692 552 bf 0.122549 0.702941 0.786029 c 12 10 703 552 bf 0.29326
 0.785539 0.529779 c 11 10 715 552 bf 11 10 726 552 bf 12 10 737 552 bf 0.4 0.807843 0.352941 c 11 10 749 552 bf 0.18652 0.763235 0.706618 c 11 10 760 552 bf 0.29326 0.785539 0.529779 c 12 10 771 552 bf 11 10 783 552 bf 0.549755 0.839706 0.244608 c
 12 10 794 552 bf 0.29326 0.785539 0.529779 c 11 10 806 552 bf 0.549755 0.839706 0.244608 c 11 10 817 552 bf 0.68799 0.869118 0.144608 c 12 10 828 552 bf 0.777451 0.791422 0.0796569 c 11 10 840 552 bf 0.4 0.807843 0.352941 c 11 10 851 552 bf 0.796569
 0.585907 0.0653186 c 12 10 862 552 bf 0.549755 0.839706 0.244608 c 11 10 874 552 bf 0.777451 0.791422 0.0796569 c 11 10 885 552 bf 12 10 896 552 bf 0.68799 0.869118 0.144608 c 11 10 908 552 bf 11 10 919 552 bf 12 10 930 552 bf 0.549755 0.839706
 0.244608 c 11 10 942 552 bf 0.802451 0.261275 0.0436275 c 11 10 953 552 bf 0.68799 0.869118 0.144608 c 12 10 964 552 bf 11 10 976 552 bf 0.549755 0.839706 0.244608 c 11 10 987 552 bf 0.796569 0.585907 0.0653186 c 12 10 998 552 bf 0.68799 0.869118
 0.144608 c 11 10 1010 552 bf 0.549755 0.839706 0.244608 c 12 10 1021 552 bf 11 10 1033 552 bf 0.815686 0.380392 0.0509804 c 11 10 1044 552 bf 0.796569 0.585907 0.0653186 c 12 10 1055 552 bf 0.777451 0.791422 0.0796569 c 11 10 1067 552 bf 0.68799
 0.869118 0.144608 c 11 10 1078 552 bf 12 10 1089 552 bf 0.777451 0.791422 0.0796569 c 11 10 1101 552 bf 0.796569 0.585907 0.0653186 c 11 10 1112 552 bf 0.4 0.807843 0.352941 c 12 10 1123 552 bf 0.796569 0.585907 0.0653186 c 11 10 1135 552 bf
 0.815686 0.380392 0.0509804 c 11 10 1146 552 bf 12 10 1157 552 bf 0.796569 0.585907 0.0653186 c 11 10 1169 552 bf 0.777451 0.791422 0.0796569 c 11 10 1180 552 bf 0.796569 0.585907 0.0653186 c 12 10 1191 552 bf 0.573162 0.0254902 0.017402 c 11 10
 1203 552 bf 0.796569 0.585907 0.0653186 c 11 10 1214 552 bf 0.68799 0.869118 0.144608 c 12 10 1225 552 bf 0.777451 0.791422 0.0796569 c 11 10 1237 552 bf 0.802451 0.261275 0.0436275 c 12 10 1248 552 bf 11 10 1260 552 bf 0.777451 0.791422 0.0796569 c
 11 10 1271 552 bf 0.796569 0.585907 0.0653186 c 12 10 1282 552 bf 0.802451 0.261275 0.0436275 c 11 10 1294 552 bf 0.549755 0.839706 0.244608 c 11 10 1305 552 bf 12 10 1316 552 bf 0.29326 0.785539 0.529779 c 11 10 1328 552 bf 0.549755 0.839706
 0.244608 c 11 10 1339 552 bf 0.4 0.807843 0.352941 c 12 10 1350 552 bf 0.18652 0.763235 0.706618 c 11 10 1362 552 bf 0.29326 0.785539 0.529779 c 11 10 1373 552 bf 12 10 1384 552 bf 11 10 1396 552 bf 0.549755 0.839706 0.244608 c 11 10 1407 552 bf
 0.18652 0.763235 0.706618 c 12 10 1418 552 bf 0.549755 0.839706 0.244608 c 11 10 1430 552 bf 0.4 0.807843 0.352941 c 11 10 1441 552 bf 0.18652 0.763235 0.706618 c 12 10 1452 552 bf 11 10 1464 552 bf 0.122549 0.702941 0.786029 c 12 10 1475 552 bf 11
 10 1487 552 bf 0.0906863 0.594608 0.78125 c 11 10 1498 552 bf 12 10 1509 552 bf 0.0428922 0.365196 0.687255 c 11 10 1521 552 bf 0.0906863 0.594608 0.78125 c 11 10 1532 552 bf 12 10 1543 552 bf 11 10 1555 552 bf 0.0588235 0.486275 0.776471 c 11 10
 1566 552 bf 12 10 1577 552 bf 0.0428922 0.365196 0.687255 c 11 10 1589 552 bf 0.0588235 0.486275 0.776471 c 11 10 1600 552 bf 0.0428922 0.365196 0.687255 c 12 10 1611 552 bf 11 10 1623 552 bf 11 10 1634 552 bf 0.0588235 0.486275 0.776471 c 12 10
 1645 552 bf 0.0428922 0.365196 0.687255 c 11 10 1657 552 bf 0.00759013 0.0728653 0.45351 c 11 10 1668 552 bf 12 10 1679 552 bf 11 10 1691 552 bf 11 10 1714 552 bf 11 10 1725 552 bf 12 10 1736 552 bf 11 10 1782 552 bf 11 10 1793 552 bf 11 10 1816 552
 bf 11 10 1918 552 bf 11 10 579 562 bf 11 10 590 562 bf 0.0158128 0.151803 0.524225 c 12 10 601 562 bf 0.0281863 0.253431 0.604902 c 11 10 613 562 bf 11 10 624 562 bf 0.0428922 0.365196 0.687255 c 12 10 635 562 bf 0.0588235 0.486275 0.776471 c 11 10
 647 562 bf 0.0906863 0.594608 0.78125 c 11 10 658 562 bf 0.0588235 0.486275 0.776471 c 12 10 669 562 bf 11 10 681 562 bf 0.122549 0.702941 0.786029 c 11 10 692 562 bf 0.0588235 0.486275 0.776471 c 12 10 703 562 bf 0.122549 0.702941 0.786029 c 11 10
 715 562 bf 0.18652 0.763235 0.706618 c 11 10 726 562 bf 0.4 0.807843 0.352941 c 12 10 737 562 bf 0.29326 0.785539 0.529779 c 11 10 749 562 bf 0.4 0.807843 0.352941 c 11 10 760 562 bf 0.549755 0.839706 0.244608 c 12 10 771 562 bf 11 10 783 562 bf 12
 10 794 562 bf 0.68799 0.869118 0.144608 c 11 10 806 562 bf 0.549755 0.839706 0.244608 c 11 10 817 562 bf 0.68799 0.869118 0.144608 c 12 10 828 562 bf 0.777451 0.791422 0.0796569 c 11 10 840 562 bf 0.549755 0.839706 0.244608 c 11 10 851 562 bf 12 10
 862 562 bf 0.777451 0.791422 0.0796569 c 11 10 874 562 bf 0.549755 0.839706 0.244608 c 11 10 885 562 bf 0.4 0.807843 0.352941 c 12 10 896 562 bf 0.549755 0.839706 0.244608 c 11 10 908 562 bf 0.68799 0.869118 0.144608 c 11 10 919 562 bf 0.777451
 0.791422 0.0796569 c 12 10 930 562 bf 0.549755 0.839706 0.244608 c 11 10 942 562 bf 0.802451 0.261275 0.0436275 c 11 10 953 562 bf 0.68799 0.869118 0.144608 c 12 10 964 562 bf 11 10 976 562 bf 11 10 987 562 bf 0.815686 0.380392 0.0509804 c 12 10 998
 562 bf 11 10 1010 562 bf 0.802451 0.261275 0.0436275 c 12 10 1021 562 bf 0.815686 0.380392 0.0509804 c 11 10 1033 562 bf 0.714951 0.0509804 0.0269608 c 11 10 1044 562 bf 0.802451 0.261275 0.0436275 c 12 10 1055 562 bf 0.777451 0.791422 0.0796569 c
 11 10 1067 562 bf 0.815686 0.380392 0.0509804 c 11 10 1078 562 bf 0.68799 0.869118 0.144608 c 12 10 1089 562 bf 0.815686 0.380392 0.0509804 c 11 10 1101 562 bf 11 10 1112 562 bf 0.68799 0.869118 0.144608 c 12 10 1123 562 bf 0.777451 0.791422
 0.0796569 c 11 10 1135 562 bf 0.796569 0.585907 0.0653186 c 11 10 1146 562 bf 0.802451 0.261275 0.0436275 c 12 10 1157 562 bf 0.68799 0.869118 0.144608 c 11 10 1169 562 bf 0.802451 0.261275 0.0436275 c 11 10 1180 562 bf 0.815686 0.380392 0.0509804 c
 12 10 1191 562 bf 0.68799 0.869118 0.144608 c 11 10 1203 562 bf 0.777451 0.791422 0.0796569 c 11 10 1214 562 bf 12 10 1225 562 bf 0.815686 0.380392 0.0509804 c 11 10 1237 562 bf 0.802451 0.261275 0.0436275 c 12 10 1248 562 bf 0.777451 0.791422
 0.0796569 c 11 10 1260 562 bf 0.549755 0.839706 0.244608 c 11 10 1271 562 bf 0.796569 0.585907 0.0653186 c 12 10 1282 562 bf 0.68799 0.869118 0.144608 c 11 10 1294 562 bf 0.815686 0.380392 0.0509804 c 11 10 1305 562 bf 0.777451 0.791422 0.0796569 c
 12 10 1316 562 bf 0.68799 0.869118 0.144608 c 11 10 1328 562 bf 0.796569 0.585907 0.0653186 c 11 10 1339 562 bf 0.68799 0.869118 0.144608 c 12 10 1350 562 bf 0.549755 0.839706 0.244608 c 11 10 1362 562 bf 0.18652 0.763235 0.706618 c 11 10 1373 562
 bf 0.4 0.807843 0.352941 c 12 10 1384 562 bf 11 10 1396 562 bf 0.29326 0.785539 0.529779 c 11 10 1407 562 bf 0.549755 0.839706 0.244608 c 12 10 1418 562 bf 0.4 0.807843 0.352941 c 11 10 1430 562 bf 0.18652 0.763235 0.706618 c 11 10 1441 562 bf 12 10
 1452 562 bf 11 10 1464 562 bf 0.29326 0.785539 0.529779 c 12 10 1475 562 bf 0.18652 0.763235 0.706618 c 11 10 1487 562 bf 0.122549 0.702941 0.786029 c 11 10 1498 562 bf 0.0906863 0.594608 0.78125 c 12 10 1509 562 bf 11 10 1521 562 bf 0.122549
 0.702941 0.786029 c 11 10 1532 562 bf 0.4 0.807843 0.352941 c 12 10 1543 562 bf 0.0428922 0.365196 0.687255 c 11 10 1555 562 bf 0.122549 0.702941 0.786029 c 11 10 1566 562 bf 0.0906863 0.594608 0.78125 c 12 10 1577 562 bf 0.0428922 0.365196 0.687255
 c 11 10 1589 562 bf 0.0588235 0.486275 0.776471 c 11 10 1600 562 bf 12 10 1611 562 bf 0.0428922 0.365196 0.687255 c 11 10 1623 562 bf 0.0588235 0.486275 0.776471 c 11 10 1634 562 bf 0.0428922 0.365196 0.687255 c 12 10 1645 562 bf 0.0281863 0.253431
 0.604902 c 11 10 1657 562 bf 0.00759013 0.0728653 0.45351 c 11 10 1668 562 bf 12 10 1679 562 bf 11 10 1691 562 bf 12 10 1702 562 bf 12 10 1736 562 bf 11 10 1748 562 bf 11 10 1759 562 bf 12 10 1770 562 bf 11 10 1782 562 bf 11 10 1793 562 bf 11 10
 1975 562 bf 12 10 601 572 bf 0.0158128 0.151803 0.524225 c 11 10 613 572 bf 0.0428922 0.365196 0.687255 c 11 10 624 572 bf 12 10 635 572 bf 11 10 647 572 bf 0.0906863 0.594608 0.78125 c 11 10 658 572 bf 0.122549 0.702941 0.786029 c 12 10 669 572 bf
 0.29326 0.785539 0.529779 c 11 10 681 572 bf 0.18652 0.763235 0.706618 c 11 10 692 572 bf 12 10 703 572 bf 0.122549 0.702941 0.786029 c 11 10 715 572 bf 0.4 0.807843 0.352941 c 11 10 726 572 bf 0.18652 0.763235 0.706618 c 12 10 737 572 bf 0.4
 0.807843 0.352941 c 11 10 749 572 bf 0.29326 0.785539 0.529779 c 11 10 760 572 bf 0.549755 0.839706 0.244608 c 12 10 771 572 bf 0.4 0.807843 0.352941 c 11 10 783 572 bf 0.68799 0.869118 0.144608 c 12 10 794 572 bf 11 10 806 572 bf 0.796569 0.585907
 0.0653186 c 11 10 817 572 bf 0.18652 0.763235 0.706618 c 12 10 828 572 bf 0.549755 0.839706 0.244608 c 11 10 840 572 bf 0.68799 0.869118 0.144608 c 11 10 851 572 bf 0.777451 0.791422 0.0796569 c 12 10 862 572 bf 0.68799 0.869118 0.144608 c 11 10 874
 572 bf 0.4 0.807843 0.352941 c 11 10 885 572 bf 0.815686 0.380392 0.0509804 c 12 10 896 572 bf 0.777451 0.791422 0.0796569 c 11 10 908 572 bf 0.68799 0.869118 0.144608 c 11 10 919 572 bf 0.549755 0.839706 0.244608 c 12 10 930 572 bf 0.68799 0.869118
 0.144608 c 11 10 942 572 bf 0.815686 0.380392 0.0509804 c 11 10 953 572 bf 0.777451 0.791422 0.0796569 c 12 10 964 572 bf 0.68799 0.869118 0.144608 c 11 10 976 572 bf 0.796569 0.585907 0.0653186 c 11 10 987 572 bf 0.815686 0.380392 0.0509804 c 12 10
 998 572 bf 0.796569 0.585907 0.0653186 c 11 10 1010 572 bf 0.802451 0.261275 0.0436275 c 12 10 1021 572 bf 11 10 1033 572 bf 0.796569 0.585907 0.0653186 c 11 10 1044 572 bf 12 10 1055 572 bf 0.68799 0.869118 0.144608 c 11 10 1067 572 bf 0.815686
 0.380392 0.0509804 c 11 10 1078 572 bf 0.68799 0.869118 0.144608 c 12 10 1089 572 bf 11 10 1101 572 bf 0.815686 0.380392 0.0509804 c 11 10 1112 572 bf 0.796569 0.585907 0.0653186 c 12 10 1123 572 bf 0.714951 0.0509804 0.0269608 c 11 10 1135 572 bf
 0.796569 0.585907 0.0653186 c 11 10 1146 572 bf 12 10 1157 572 bf 0.802451 0.261275 0.0436275 c 11 10 1169 572 bf 0.777451 0.791422 0.0796569 c 11 10 1180 572 bf 0.573162 0.0254902 0.017402 c 12 10 1191 572 bf 0.796569 0.585907 0.0653186 c 11 10
 1203 572 bf 11 10 1214 572 bf 0.68799 0.869118 0.144608 c 12 10 1225 572 bf 0.796569 0.585907 0.0653186 c 11 10 1237 572 bf 0.802451 0.261275 0.0436275 c 12 10 1248 572 bf 0.796569 0.585907 0.0653186 c 11 10 1260 572 bf 11 10 1271 572 bf 0.777451
 0.791422 0.0796569 c 12 10 1282 572 bf 0.802451 0.261275 0.0436275 c 11 10 1294 572 bf 0.815686 0.380392 0.0509804 c 11 10 1305 572 bf 0.777451 0.791422 0.0796569 c 12 10 1316 572 bf 0.796569 0.585907 0.0653186 c 11 10 1328 572 bf 0.68799 0.869118
 0.144608 c 11 10 1339 572 bf 0.29326 0.785539 0.529779 c 12 10 1350 572 bf 0.777451 0.791422 0.0796569 c 11 10 1362 572 bf 0.29326 0.785539 0.529779 c 11 10 1373 572 bf 0.4 0.807843 0.352941 c 12 10 1384 572 bf 0.68799 0.869118 0.144608 c 11 10 1396
 572 bf 0.4 0.807843 0.352941 c 11 10 1407 572 bf 12 10 1418 572 bf 0.29326 0.785539 0.529779 c 11 10 1430 572 bf 0.777451 0.791422 0.0796569 c 11 10 1441 572 bf 0.29326 0.785539 0.529779 c 12 10 1452 572 bf 11 10 1464 572 bf 0.0906863 0.594608
 0.78125 c 12 10 1475 572 bf 0.122549 0.702941 0.786029 c 11 10 1487 572 bf 0.0906863 0.594608 0.78125 c 11 10 1498 572 bf 12 10 1509 572 bf 0.18652 0.763235 0.706618 c 11 10 1521 572 bf 0.122549 0.702941 0.786029 c 11 10 1532 572 bf 12 10 1543 572
 bf 0.0906863 0.594608 0.78125 c 11 10 1555 572 bf 0.122549 0.702941 0.786029 c 11 10 1566 572 bf 0.0906863 0.594608 0.78125 c 12 10 1577 572 bf 0.0588235 0.486275 0.776471 c 11 10 1589 572 bf 11 10 1600 572 bf 0.0428922 0.365196 0.687255 c 12 10
 1611 572 bf 11 10 1623 572 bf 11 10 1634 572 bf 12 10 1645 572 bf 11 10 1657 572 bf 0.00759013 0.0728653 0.45351 c 11 10 1668 572 bf 12 10 1679 572 bf 11 10 1691 572 bf 12 10 1702 572 bf 11 10 1714 572 bf 11 10 1725 572 bf 12 10 1736 572 bf 11 10
 1759 572 bf 12 10 1804 572 bf 11 10 1827 572 bf 12 10 1906 572 bf 11 9 590 582 bf 0.0158128 0.151803 0.524225 c 12 9 601 582 bf 11 9 613 582 bf 0.0281863 0.253431 0.604902 c 11 9 624 582 bf 0.0428922 0.365196 0.687255 c 12 9 635 582 bf 11 9 647 582
 bf 0.0588235 0.486275 0.776471 c 11 9 658 582 bf 0.0906863 0.594608 0.78125 c 12 9 669 582 bf 11 9 681 582 bf 0.18652 0.763235 0.706618 c 11 9 692 582 bf 0.29326 0.785539 0.529779 c 12 9 703 582 bf 0.18652 0.763235 0.706618 c 11 9 715 582 bf 11 9
 726 582 bf 0.4 0.807843 0.352941 c 12 9 737 582 bf 0.18652 0.763235 0.706618 c 11 9 749 582 bf 0.29326 0.785539 0.529779 c 11 9 760 582 bf 0.777451 0.791422 0.0796569 c 12 9 771 582 bf 0.4 0.807843 0.352941 c 11 9 783 582 bf 0.68799 0.869118
 0.144608 c 12 9 794 582 bf 11 9 806 582 bf 11 9 817 582 bf 0.549755 0.839706 0.244608 c 12 9 828 582 bf 0.68799 0.869118 0.144608 c 11 9 840 582 bf 0.777451 0.791422 0.0796569 c 11 9 851 582 bf 0.796569 0.585907 0.0653186 c 12 9 862 582 bf 11 9 874
 582 bf 0.815686 0.380392 0.0509804 c 11 9 885 582 bf 0.796569 0.585907 0.0653186 c 12 9 896 582 bf 0.68799 0.869118 0.144608 c 11 9 908 582 bf 0.549755 0.839706 0.244608 c 11 9 919 582 bf 12 9 930 582 bf 0.777451 0.791422 0.0796569 c 11 9 942 582 bf
 0.788113 0.13223 0.0356618 c 11 9 953 582 bf 12 9 964 582 bf 0.777451 0.791422 0.0796569 c 11 9 976 582 bf 0.714951 0.0509804 0.0269608 c 11 9 987 582 bf 0.802451 0.261275 0.0436275 c 12 9 998 582 bf 0.796569 0.585907 0.0653186 c 11 9 1010 582 bf
 0.549755 0.839706 0.244608 c 12 9 1021 582 bf 0.68799 0.869118 0.144608 c 11 9 1033 582 bf 0.802451 0.261275 0.0436275 c 11 9 1044 582 bf 0.815686 0.380392 0.0509804 c 12 9 1055 582 bf 11 9 1067 582 bf 0.802451 0.261275 0.0436275 c 11 9 1078 582 bf
 0.788113 0.13223 0.0356618 c 12 9 1089 582 bf 0.815686 0.380392 0.0509804 c 11 9 1101 582 bf 0.796569 0.585907 0.0653186 c 11 9 1112 582 bf 0.573162 0.0254902 0.017402 c 12 9 1123 582 bf 0.796569 0.585907 0.0653186 c 11 9 1135 582 bf 11 9 1146 582
 bf 12 9 1157 582 bf 0.802451 0.261275 0.0436275 c 11 9 1169 582 bf 11 9 1180 582 bf 0.714951 0.0509804 0.0269608 c 12 9 1191 582 bf 0.815686 0.380392 0.0509804 c 11 9 1203 582 bf 0.796569 0.585907 0.0653186 c 11 9 1214 582 bf 12 9 1225 582 bf 11 9
 1237 582 bf 12 9 1248 582 bf 0.802451 0.261275 0.0436275 c 11 9 1260 582 bf 0.68799 0.869118 0.144608 c 11 9 1271 582 bf 0.802451 0.261275 0.0436275 c 12 9 1282 582 bf 0.777451 0.791422 0.0796569 c 11 9 1294 582 bf 0.815686 0.380392 0.0509804 c 11 9
 1305 582 bf 0.4 0.807843 0.352941 c 12 9 1316 582 bf 0.815686 0.380392 0.0509804 c 11 9 1328 582 bf 0.68799 0.869118 0.144608 c 11 9 1339 582 bf 12 9 1350 582 bf 0.29326 0.785539 0.529779 c 11 9 1362 582 bf 0.4 0.807843 0.352941 c 11 9 1373 582 bf
 12 9 1384 582 bf 0.29326 0.785539 0.529779 c 11 9 1396 582 bf 0.18652 0.763235 0.706618 c 11 9 1407 582 bf 0.29326 0.785539 0.529779 c 12 9 1418 582 bf 0.4 0.807843 0.352941 c 11 9 1430 582 bf 11 9 1441 582 bf 0.29326 0.785539 0.529779 c 12 9 1452
 582 bf 0.122549 0.702941 0.786029 c 11 9 1464 582 bf 12 9 1475 582 bf 0.4 0.807843 0.352941 c 11 9 1487 582 bf 0.122549 0.702941 0.786029 c 11 9 1498 582 bf 12 9 1509 582 bf 0.18652 0.763235 0.706618 c 11 9 1521 582 bf 0.122549 0.702941 0.786029 c
 11 9 1532 582 bf 12 9 1543 582 bf 11 9 1555 582 bf 0.0906863 0.594608 0.78125 c 11 9 1566 582 bf 12 9 1577 582 bf 0.0588235 0.486275 0.776471 c 11 9 1589 582 bf 11 9 1600 582 bf 0.0428922 0.365196 0.687255 c 12 9 1611 582 bf 0.0588235 0.486275
 0.776471 c 11 9 1623 582 bf 0.0281863 0.253431 0.604902 c 11 9 1634 582 bf 0.0428922 0.365196 0.687255 c 12 9 1645 582 bf 0.0281863 0.253431 0.604902 c 11 9 1657 582 bf 0.0158128 0.151803 0.524225 c 11 9 1668 582 bf 0.00759013 0.0728653 0.45351 c 12
 9 1679 582 bf 0.0158128 0.151803 0.524225 c 11 9 1691 582 bf 0.00759013 0.0728653 0.45351 c 12 9 1702 582 bf 11 9 1714 582 bf 11 9 1725 582 bf 12 9 1736 582 bf 11 9 1748 582 bf 11 9 1759 582 bf 12 9 1770 582 bf 11 9 1782 582 bf 11 9 1793 582 bf 12 9
 1804 582 bf 11 9 1816 582 bf 12 9 1838 582 bf 12 9 1872 582 bf 11 9 1918 582 bf 11 10 579 591 bf 11 10 590 591 bf 0.0158128 0.151803 0.524225 c 12 10 601 591 bf 0.0281863 0.253431 0.604902 c 11 10 613 591 bf 0.0428922 0.365196 0.687255 c 11 10 624
 591 bf 0.0281863 0.253431 0.604902 c 12 10 635 591 bf 0.0588235 0.486275 0.776471 c 11 10 647 591 bf 0.0428922 0.365196 0.687255 c 11 10 658 591 bf 12 10 669 591 bf 0.18652 0.763235 0.706618 c 11 10 681 591 bf 0.122549 0.702941 0.786029 c 11 10 692
 591 bf 0.29326 0.785539 0.529779 c 12 10 703 591 bf 0.18652 0.763235 0.706618 c 11 10 715 591 bf 0.549755 0.839706 0.244608 c 11 10 726 591 bf 0.68799 0.869118 0.144608 c 12 10 737 591 bf 0.29326 0.785539 0.529779 c 11 10 749 591 bf 0.68799 0.869118
 0.144608 c 11 10 760 591 bf 0.4 0.807843 0.352941 c 12 10 771 591 bf 0.549755 0.839706 0.244608 c 11 10 783 591 bf 0.68799 0.869118 0.144608 c 12 10 794 591 bf 0.777451 0.791422 0.0796569 c 11 10 806 591 bf 0.796569 0.585907 0.0653186 c 11 10 817
 591 bf 0.68799 0.869118 0.144608 c 12 10 828 591 bf 0.777451 0.791422 0.0796569 c 11 10 840 591 bf 11 10 851 591 bf 12 10 862 591 bf 11 10 874 591 bf 0.68799 0.869118 0.144608 c 11 10 885 591 bf 0.815686 0.380392 0.0509804 c 12 10 896 591 bf 0.68799
 0.869118 0.144608 c 11 10 908 591 bf 0.549755 0.839706 0.244608 c 11 10 919 591 bf 0.4 0.807843 0.352941 c 12 10 930 591 bf 11 10 942 591 bf 0.777451 0.791422 0.0796569 c 11 10 953 591 bf 0.788113 0.13223 0.0356618 c 12 10 964 591 bf 0.815686
 0.380392 0.0509804 c 11 10 976 591 bf 11 10 987 591 bf 0.788113 0.13223 0.0356618 c 12 10 998 591 bf 0.777451 0.791422 0.0796569 c 11 10 1010 591 bf 0.796569 0.585907 0.0653186 c 12 10 1021 591 bf 0.802451 0.261275 0.0436275 c 11 10 1033 591 bf
 0.815686 0.380392 0.0509804 c 11 10 1044 591 bf 12 10 1055 591 bf 11 10 1067 591 bf 0.802451 0.261275 0.0436275 c 11 10 1078 591 bf 0.815686 0.380392 0.0509804 c 12 10 1089 591 bf 0.777451 0.791422 0.0796569 c 11 10 1101 591 bf 0.802451 0.261275
 0.0436275 c 11 10 1112 591 bf 12 10 1123 591 bf 11 10 1135 591 bf 0.714951 0.0509804 0.0269608 c 11 10 1146 591 bf 0.796569 0.585907 0.0653186 c 12 10 1157 591 bf 11 10 1169 591 bf 11 10 1180 591 bf 0.815686 0.380392 0.0509804 c 12 10 1191 591 bf 11
 10 1203 591 bf 11 10 1214 591 bf 0.788113 0.13223 0.0356618 c 12 10 1225 591 bf 0.802451 0.261275 0.0436275 c 11 10 1237 591 bf 0.796569 0.585907 0.0653186 c 12 10 1248 591 bf 0.815686 0.380392 0.0509804 c 11 10 1260 591 bf 0.777451 0.791422
 0.0796569 c 11 10 1271 591 bf 12 10 1282 591 bf 0.68799 0.869118 0.144608 c 11 10 1294 591 bf 0.802451 0.261275 0.0436275 c 11 10 1305 591 bf 0.777451 0.791422 0.0796569 c 12 10 1316 591 bf 0.29326 0.785539 0.529779 c 11 10 1328 591 bf 0.815686
 0.380392 0.0509804 c 11 10 1339 591 bf 0.4 0.807843 0.352941 c 12 10 1350 591 bf 11 10 1362 591 bf 0.549755 0.839706 0.244608 c 11 10 1373 591 bf 0.4 0.807843 0.352941 c 12 10 1384 591 bf 0.29326 0.785539 0.529779 c 11 10 1396 591 bf 0.4 0.807843
 0.352941 c 11 10 1407 591 bf 0.68799 0.869118 0.144608 c 12 10 1418 591 bf 0.4 0.807843 0.352941 c 11 10 1430 591 bf 11 10 1441 591 bf 0.122549 0.702941 0.786029 c 12 10 1452 591 bf 0.549755 0.839706 0.244608 c 11 10 1464 591 bf 0.29326 0.785539
 0.529779 c 12 10 1475 591 bf 0.18652 0.763235 0.706618 c 11 10 1487 591 bf 0.0906863 0.594608 0.78125 c 11 10 1498 591 bf 0.18652 0.763235 0.706618 c 12 10 1509 591 bf 0.122549 0.702941 0.786029 c 11 10 1521 591 bf 0.0906863 0.594608 0.78125 c 11 10
 1532 591 bf 0.122549 0.702941 0.786029 c 12 10 1543 591 bf 0.0906863 0.594608 0.78125 c 11 10 1555 591 bf 11 10 1566 591 bf 0.122549 0.702941 0.786029 c 12 10 1577 591 bf 0.0281863 0.253431 0.604902 c 11 10 1589 591 bf 0.0906863 0.594608 0.78125 c
 11 10 1600 591 bf 0.0281863 0.253431 0.604902 c 12 10 1611 591 bf 0.0428922 0.365196 0.687255 c 11 10 1623 591 bf 11 10 1634 591 bf 0.0281863 0.253431 0.604902 c 12 10 1645 591 bf 0.0158128 0.151803 0.524225 c 11 10 1657 591 bf 11 10 1668 591 bf
 0.00759013 0.0728653 0.45351 c 12 10 1679 591 bf 11 10 1691 591 bf 12 10 1702 591 bf 11 10 1714 591 bf 11 10 1725 591 bf 12 10 1736 591 bf 11 10 1748 591 bf 12 10 1770 591 bf 11 10 1816 591 bf 11 10 1918 591 bf 11 10 590 601 bf 12 10 601 601 bf
 0.0158128 0.151803 0.524225 c 11 10 613 601 bf 11 10 624 601 bf 0.0428922 0.365196 0.687255 c 12 10 635 601 bf 0.0588235 0.486275 0.776471 c 11 10 647 601 bf 0.122549 0.702941 0.786029 c 11 10 658 601 bf 12 10 669 601 bf 0.18652 0.763235 0.706618 c
 11 10 681 601 bf 0.4 0.807843 0.352941 c 11 10 692 601 bf 12 10 703 601 bf 0.29326 0.785539 0.529779 c 11 10 715 601 bf 0.18652 0.763235 0.706618 c 11 10 726 601 bf 0.4 0.807843 0.352941 c 12 10 737 601 bf 0.549755 0.839706 0.244608 c 11 10 749 601
 bf 0.0906863 0.594608 0.78125 c 11 10 760 601 bf 0.549755 0.839706 0.244608 c 12 10 771 601 bf 11 10 783 601 bf 0.777451 0.791422 0.0796569 c 12 10 794 601 bf 0.68799 0.869118 0.144608 c 11 10 806 601 bf 11 10 817 601 bf 12 10 828 601 bf 11 10 840
 601 bf 11 10 851 601 bf 0.796569 0.585907 0.0653186 c 12 10 862 601 bf 11 10 874 601 bf 0.549755 0.839706 0.244608 c 11 10 885 601 bf 0.796569 0.585907 0.0653186 c 12 10 896 601 bf 0.815686 0.380392 0.0509804 c 11 10 908 601 bf 0.796569 0.585907
 0.0653186 c 11 10 919 601 bf 0.777451 0.791422 0.0796569 c 12 10 930 601 bf 0.815686 0.380392 0.0509804 c 11 10 942 601 bf 0.796569 0.585907 0.0653186 c 11 10 953 601 bf 0.788113 0.13223 0.0356618 c 12 10 964 601 bf 0.68799 0.869118 0.144608 c 11 10
 976 601 bf 0.549755 0.839706 0.244608 c 11 10 987 601 bf 0.777451 0.791422 0.0796569 c 12 10 998 601 bf 0.815686 0.380392 0.0509804 c 11 10 1010 601 bf 0.777451 0.791422 0.0796569 c 12 10 1021 601 bf 0.788113 0.13223 0.0356618 c 11 10 1033 601 bf
 0.549755 0.839706 0.244608 c 11 10 1044 601 bf 0.796569 0.585907 0.0653186 c 12 10 1055 601 bf 0.815686 0.380392 0.0509804 c 11 10 1067 601 bf 11 10 1078 601 bf 0.802451 0.261275 0.0436275 c 12 10 1089 601 bf 0.788113 0.13223 0.0356618 c 11 10 1101
 601 bf 0.802451 0.261275 0.0436275 c 11 10 1112 601 bf 0.777451 0.791422 0.0796569 c 12 10 1123 601 bf 0.815686 0.380392 0.0509804 c 11 10 1135 601 bf 11 10 1146 601 bf 12 10 1157 601 bf 0.796569 0.585907 0.0653186 c 11 10 1169 601 bf 11 10 1180 601
 bf 0.815686 0.380392 0.0509804 c 12 10 1191 601 bf 0.802451 0.261275 0.0436275 c 11 10 1203 601 bf 0.815686 0.380392 0.0509804 c 11 10 1214 601 bf 0.788113 0.13223 0.0356618 c 12 10 1225 601 bf 0.802451 0.261275 0.0436275 c 11 10 1237 601 bf
 0.714951 0.0509804 0.0269608 c 12 10 1248 601 bf 0.549755 0.839706 0.244608 c 11 10 1260 601 bf 0.802451 0.261275 0.0436275 c 11 10 1271 601 bf 0.796569 0.585907 0.0653186 c 12 10 1282 601 bf 0.802451 0.261275 0.0436275 c 11 10 1294 601 bf 0.796569
 0.585907 0.0653186 c 11 10 1305 601 bf 0.777451 0.791422 0.0796569 c 12 10 1316 601 bf 0.4 0.807843 0.352941 c 11 10 1328 601 bf 0.777451 0.791422 0.0796569 c 11 10 1339 601 bf 0.68799 0.869118 0.144608 c 12 10 1350 601 bf 0.4 0.807843 0.352941 c 11
 10 1362 601 bf 11 10 1373 601 bf 0.549755 0.839706 0.244608 c 12 10 1384 601 bf 11 10 1396 601 bf 0.18652 0.763235 0.706618 c 11 10 1407 601 bf 12 10 1418 601 bf 0.549755 0.839706 0.244608 c 11 10 1430 601 bf 0.0906863 0.594608 0.78125 c 11 10 1441
 601 bf 0.122549 0.702941 0.786029 c 12 10 1452 601 bf 11 10 1464 601 bf 0.4 0.807843 0.352941 c 12 10 1475 601 bf 0.122549 0.702941 0.786029 c 11 10 1487 601 bf 0.0906863 0.594608 0.78125 c 11 10 1498 601 bf 0.0588235 0.486275 0.776471 c 12 10 1509
 601 bf 0.122549 0.702941 0.786029 c 11 10 1521 601 bf 11 10 1532 601 bf 12 10 1543 601 bf 0.0588235 0.486275 0.776471 c 11 10 1555 601 bf 11 10 1566 601 bf 0.0428922 0.365196 0.687255 c 12 10 1577 601 bf 0.0281863 0.253431 0.604902 c 11 10 1589 601
 bf 0.0588235 0.486275 0.776471 c 11 10 1600 601 bf 12 10 1611 601 bf 11 10 1623 601 bf 0.0281863 0.253431 0.604902 c 11 10 1634 601 bf 0.0428922 0.365196 0.687255 c 12 10 1645 601 bf 0.00759013 0.0728653 0.45351 c 11 10 1657 601 bf 0.0158128
 0.151803 0.524225 c 11 10 1668 601 bf 12 10 1679 601 bf 0.00759013 0.0728653 0.45351 c 11 10 1691 601 bf 12 10 1702 601 bf 11 10 1714 601 bf 11 10 1725 601 bf 12 10 1736 601 bf 11 10 1748 601 bf 11 10 1759 601 bf 12 10 1770 601 bf 11 10 1793 601 bf
 12 10 1929 601 bf 0.0158128 0.151803 0.524225 c 12 9 601 611 bf 0.0281863 0.253431 0.604902 c 11 9 613 611 bf 11 9 624 611 bf 12 9 635 611 bf 0.0588235 0.486275 0.776471 c 11 9 647 611 bf 0.0906863 0.594608 0.78125 c 11 9 658 611 bf 0.0588235
 0.486275 0.776471 c 12 9 669 611 bf 0.122549 0.702941 0.786029 c 11 9 681 611 bf 0.0588235 0.486275 0.776471 c 11 9 692 611 bf 0.29326 0.785539 0.529779 c 12 9 703 611 bf 0.18652 0.763235 0.706618 c 11 9 715 611 bf 11 9 726 611 bf 0.29326 0.785539
 0.529779 c 12 9 737 611 bf 0.549755 0.839706 0.244608 c 11 9 749 611 bf 0.4 0.807843 0.352941 c 11 9 760 611 bf 12 9 771 611 bf 0.29326 0.785539 0.529779 c 11 9 783 611 bf 0.549755 0.839706 0.244608 c 12 9 794 611 bf 0.122549 0.702941 0.786029 c 11
 9 806 611 bf 0.4 0.807843 0.352941 c 11 9 817 611 bf 0.68799 0.869118 0.144608 c 12 9 828 611 bf 0.549755 0.839706 0.244608 c 11 9 840 611 bf 0.68799 0.869118 0.144608 c 11 9 851 611 bf 0.549755 0.839706 0.244608 c 12 9 862 611 bf 0.68799 0.869118
 0.144608 c 11 9 874 611 bf 0.815686 0.380392 0.0509804 c 11 9 885 611 bf 0.68799 0.869118 0.144608 c 12 9 896 611 bf 0.802451 0.261275 0.0436275 c 11 9 908 611 bf 0.796569 0.585907 0.0653186 c 11 9 919 611 bf 12 9 930 611 bf 0.777451 0.791422
 0.0796569 c 11 9 942 611 bf 0.714951 0.0509804 0.0269608 c 11 9 953 611 bf 0.788113 0.13223 0.0356618 c 12 9 964 611 bf 0.802451 0.261275 0.0436275 c 11 9 976 611 bf 0.777451 0.791422 0.0796569 c 11 9 987 611 bf 0.68799 0.869118 0.144608 c 12 9 998
 611 bf 0.796569 0.585907 0.0653186 c 11 9 1010 611 bf 0.815686 0.380392 0.0509804 c 12 9 1021 611 bf 0.796569 0.585907 0.0653186 c 11 9 1033 611 bf 0.802451 0.261275 0.0436275 c 11 9 1044 611 bf 0.815686 0.380392 0.0509804 c 12 9 1055 611 bf
 0.802451 0.261275 0.0436275 c 11 9 1067 611 bf 0.815686 0.380392 0.0509804 c 11 9 1078 611 bf 0.802451 0.261275 0.0436275 c 12 9 1089 611 bf 0.714951 0.0509804 0.0269608 c 11 9 1101 611 bf 0.788113 0.13223 0.0356618 c 11 9 1112 611 bf 0.796569
 0.585907 0.0653186 c 12 9 1123 611 bf 0.815686 0.380392 0.0509804 c 11 9 1135 611 bf 0.442279 0.00196078 0.00857843 c 11 9 1146 611 bf 0.815686 0.380392 0.0509804 c 12 9 1157 611 bf 0.796569 0.585907 0.0653186 c 11 9 1169 611 bf 11 9 1180 611 bf
 0.714951 0.0509804 0.0269608 c 12 9 1191 611 bf 0.815686 0.380392 0.0509804 c 11 9 1203 611 bf 0.68799 0.869118 0.144608 c 11 9 1214 611 bf 0.815686 0.380392 0.0509804 c 12 9 1225 611 bf 0.714951 0.0509804 0.0269608 c 11 9 1237 611 bf 0.68799
 0.869118 0.144608 c 12 9 1248 611 bf 0.788113 0.13223 0.0356618 c 11 9 1260 611 bf 0.815686 0.380392 0.0509804 c 11 9 1271 611 bf 0.777451 0.791422 0.0796569 c 12 9 1282 611 bf 0.788113 0.13223 0.0356618 c 11 9 1294 611 bf 0.802451 0.261275
 0.0436275 c 11 9 1305 611 bf 0.68799 0.869118 0.144608 c 12 9 1316 611 bf 0.549755 0.839706 0.244608 c 11 9 1328 611 bf 0.796569 0.585907 0.0653186 c 11 9 1339 611 bf 0.549755 0.839706 0.244608 c 12 9 1350 611 bf 0.29326 0.785539 0.529779 c 11 9
 1362 611 bf 0.68799 0.869118 0.144608 c 11 9 1373 611 bf 0.4 0.807843 0.352941 c 12 9 1384 611 bf 11 9 1396 611 bf 0.29326 0.785539 0.529779 c 11 9 1407 611 bf 12 9 1418 611 bf 0.4 0.807843 0.352941 c 11 9 1430 611 bf 0.18652 0.763235 0.706618 c 11
 9 1441 611 bf 0.122549 0.702941 0.786029 c 12 9 1452 611 bf 0.18652 0.763235 0.706618 c 11 9 1464 611 bf 0.4 0.807843 0.352941 c 12 9 1475 611 bf 0.18652 0.763235 0.706618 c 11 9 1487 611 bf 0.122549 0.702941 0.786029 c 11 9 1498 611 bf 0.0588235
 0.486275 0.776471 c 12 9 1509 611 bf 0.0906863 0.594608 0.78125 c 11 9 1521 611 bf 11 9 1532 611 bf 0.122549 0.702941 0.786029 c 12 9 1543 611 bf 0.0906863 0.594608 0.78125 c 11 9 1555 611 bf 0.0588235 0.486275 0.776471 c 11 9 1566 611 bf 0.0906863
 0.594608 0.78125 c 12 9 1577 611 bf 0.0428922 0.365196 0.687255 c 11 9 1589 611 bf 0.0588235 0.486275 0.776471 c 11 9 1600 611 bf 12 9 1611 611 bf 0.0281863 0.253431 0.604902 c 11 9 1623 611 bf 0.0428922 0.365196 0.687255 c 11 9 1634 611 bf
 0.0281863 0.253431 0.604902 c 12 9 1645 611 bf 0.0428922 0.365196 0.687255 c 11 9 1657 611 bf 0.0281863 0.253431 0.604902 c 11 9 1668 611 bf 0.0158128 0.151803 0.524225 c 12 9 1679 611 bf 11 9 1691 611 bf 12 9 1702 611 bf 0.00759013 0.0728653
 0.45351 c 11 9 1714 611 bf 11 9 1725 611 bf 12 9 1736 611 bf 0.0158128 0.151803 0.524225 c 11 9 1748 611 bf 0.00759013 0.0728653 0.45351 c 11 9 1759 611 bf 12 9 1770 611 bf 12 9 1804 611 bf 11 9 1816 611 bf 11 9 1827 611 bf 12 9 1838 611 bf 12 9
 1872 611 bf 11 10 579 620 bf 11 10 590 620 bf 0.0158128 0.151803 0.524225 c 12 10 601 620 bf 0.0281863 0.253431 0.604902 c 11 10 613 620 bf 0.0428922 0.365196 0.687255 c 11 10 624 620 bf 12 10 635 620 bf 0.0588235 0.486275 0.776471 c 11 10 647 620
 bf 0.0906863 0.594608 0.78125 c 11 10 658 620 bf 0.0588235 0.486275 0.776471 c 12 10 669 620 bf 0.122549 0.702941 0.786029 c 11 10 681 620 bf 0.18652 0.763235 0.706618 c 11 10 692 620 bf 0.29326 0.785539 0.529779 c 12 10 703 620 bf 0.0906863
 0.594608 0.78125 c 11 10 715 620 bf 0.549755 0.839706 0.244608 c 11 10 726 620 bf 0.4 0.807843 0.352941 c 12 10 737 620 bf 11 10 749 620 bf 0.549755 0.839706 0.244608 c 11 10 760 620 bf 0.4 0.807843 0.352941 c 12 10 771 620 bf 0.68799 0.869118
 0.144608 c 11 10 783 620 bf 0.549755 0.839706 0.244608 c 12 10 794 620 bf 0.796569 0.585907 0.0653186 c 11 10 806 620 bf 0.4 0.807843 0.352941 c 11 10 817 620 bf 0.796569 0.585907 0.0653186 c 12 10 828 620 bf 0.549755 0.839706 0.244608 c 11 10 840
 620 bf 0.777451 0.791422 0.0796569 c 11 10 851 620 bf 0.796569 0.585907 0.0653186 c 12 10 862 620 bf 0.68799 0.869118 0.144608 c 11 10 874 620 bf 11 10 885 620 bf 0.796569 0.585907 0.0653186 c 12 10 896 620 bf 0.68799 0.869118 0.144608 c 11 10 908
 620 bf 0.796569 0.585907 0.0653186 c 11 10 919 620 bf 0.777451 0.791422 0.0796569 c 12 10 930 620 bf 0.815686 0.380392 0.0509804 c 11 10 942 620 bf 0.788113 0.13223 0.0356618 c 11 10 953 620 bf 0.714951 0.0509804 0.0269608 c 12 10 964 620 bf
 0.802451 0.261275 0.0436275 c 11 10 976 620 bf 0.796569 0.585907 0.0653186 c 11 10 987 620 bf 0.777451 0.791422 0.0796569 c 12 10 998 620 bf 11 10 1010 620 bf 0.796569 0.585907 0.0653186 c 12 10 1021 620 bf 0.802451 0.261275 0.0436275 c 11 10 1033
 620 bf 0.714951 0.0509804 0.0269608 c 11 10 1044 620 bf 0.802451 0.261275 0.0436275 c 12 10 1055 620 bf 0.815686 0.380392 0.0509804 c 11 10 1067 620 bf 11 10 1078 620 bf 12 10 1089 620 bf 0.442279 0.00196078 0.00857843 c 11 10 1101 620 bf 0.68799
 0.869118 0.144608 c 11 10 1112 620 bf 0.815686 0.380392 0.0509804 c 12 10 1123 620 bf 0.796569 0.585907 0.0653186 c 11 10 1135 620 bf 0.802451 0.261275 0.0436275 c 11 10 1146 620 bf 0.796569 0.585907 0.0653186 c 12 10 1157 620 bf 0.815686 0.380392
 0.0509804 c 11 10 1169 620 bf 0.777451 0.791422 0.0796569 c 11 10 1180 620 bf 0.815686 0.380392 0.0509804 c 12 10 1191 620 bf 0.788113 0.13223 0.0356618 c 11 10 1203 620 bf 11 10 1214 620 bf 0.796569 0.585907 0.0653186 c 12 10 1225 620 bf 0.815686
 0.380392 0.0509804 c 11 10 1237 620 bf 12 10 1248 620 bf 11 10 1260 620 bf 0.802451 0.261275 0.0436275 c 11 10 1271 620 bf 0.777451 0.791422 0.0796569 c 12 10 1282 620 bf 0.815686 0.380392 0.0509804 c 11 10 1294 620 bf 0.796569 0.585907 0.0653186 c
 11 10 1305 620 bf 0.815686 0.380392 0.0509804 c 12 10 1316 620 bf 11 10 1328 620 bf 0.777451 0.791422 0.0796569 c 11 10 1339 620 bf 0.4 0.807843 0.352941 c 12 10 1350 620 bf 0.29326 0.785539 0.529779 c 11 10 1362 620 bf 11 10 1373 620 bf 0.4
 0.807843 0.352941 c 12 10 1384 620 bf 11 10 1396 620 bf 0.549755 0.839706 0.244608 c 11 10 1407 620 bf 0.18652 0.763235 0.706618 c 12 10 1418 620 bf 0.122549 0.702941 0.786029 c 11 10 1430 620 bf 0.4 0.807843 0.352941 c 11 10 1441 620 bf 0.29326
 0.785539 0.529779 c 12 10 1452 620 bf 0.18652 0.763235 0.706618 c 11 10 1464 620 bf 0.4 0.807843 0.352941 c 12 10 1475 620 bf 0.122549 0.702941 0.786029 c 11 10 1487 620 bf 0.18652 0.763235 0.706618 c 11 10 1498 620 bf 12 10 1509 620 bf 0.122549
 0.702941 0.786029 c 11 10 1521 620 bf 0.0906863 0.594608 0.78125 c 11 10 1532 620 bf 0.122549 0.702941 0.786029 c 12 10 1543 620 bf 0.0906863 0.594608 0.78125 c 11 10 1555 620 bf 0.122549 0.702941 0.786029 c 11 10 1566 620 bf 0.0588235 0.486275
 0.776471 c 12 10 1577 620 bf 11 10 1589 620 bf 0.0428922 0.365196 0.687255 c 11 10 1600 620 bf 0.0906863 0.594608 0.78125 c 12 10 1611 620 bf 0.0281863 0.253431 0.604902 c 11 10 1623 620 bf 11 10 1634 620 bf 12 10 1645 620 bf 0.0158128 0.151803
 0.524225 c 11 10 1657 620 bf 0.0281863 0.253431 0.604902 c 11 10 1668 620 bf 0.0158128 0.151803 0.524225 c 12 10 1679 620 bf 0.0281863 0.253431 0.604902 c 11 10 1691 620 bf 0.0158128 0.151803 0.524225 c 12 10 1702 620 bf 0.00759013 0.0728653 0.45351
 c 11 10 1714 620 bf 12 10 1736 620 bf 11 10 1748 620 bf 11 10 1759 620 bf 12 10 1770 620 bf 12 10 1804 620 bf 11 10 1827 620 bf 11 10 1850 620 bf 12 10 567 630 bf 11 10 590 630 bf 12 10 601 630 bf 0.0281863 0.253431 0.604902 c 11 10 613 630 bf 11 10
 624 630 bf 12 10 635 630 bf 0.0428922 0.365196 0.687255 c 11 10 647 630 bf 0.0588235 0.486275 0.776471 c 11 10 658 630 bf 0.0906863 0.594608 0.78125 c 12 10 669 630 bf 0.18652 0.763235 0.706618 c 11 10 681 630 bf 11 10 692 630 bf 0.4 0.807843
 0.352941 c 12 10 703 630 bf 0.18652 0.763235 0.706618 c 11 10 715 630 bf 0.4 0.807843 0.352941 c 11 10 726 630 bf 0.29326 0.785539 0.529779 c 12 10 737 630 bf 0.4 0.807843 0.352941 c 11 10 749 630 bf 0.29326 0.785539 0.529779 c 11 10 760 630 bf 0.4
 0.807843 0.352941 c 12 10 771 630 bf 0.802451 0.261275 0.0436275 c 11 10 783 630 bf 0.68799 0.869118 0.144608 c 12 10 794 630 bf 0.796569 0.585907 0.0653186 c 11 10 806 630 bf 0.4 0.807843 0.352941 c 11 10 817 630 bf 0.549755 0.839706 0.244608 c 12
 10 828 630 bf 0.68799 0.869118 0.144608 c 11 10 840 630 bf 0.777451 0.791422 0.0796569 c 11 10 851 630 bf 0.68799 0.869118 0.144608 c 12 10 862 630 bf 0.777451 0.791422 0.0796569 c 11 10 874 630 bf 11 10 885 630 bf 12 10 896 630 bf 11 10 908 630 bf
 0.802451 0.261275 0.0436275 c 11 10 919 630 bf 0.788113 0.13223 0.0356618 c 12 10 930 630 bf 0.796569 0.585907 0.0653186 c 11 10 942 630 bf 0.815686 0.380392 0.0509804 c 11 10 953 630 bf 0.788113 0.13223 0.0356618 c 12 10 964 630 bf 11 10 976 630 bf
 0.815686 0.380392 0.0509804 c 11 10 987 630 bf 0.68799 0.869118 0.144608 c 12 10 998 630 bf 0.777451 0.791422 0.0796569 c 11 10 1010 630 bf 0.796569 0.585907 0.0653186 c 12 10 1021 630 bf 0.815686 0.380392 0.0509804 c 11 10 1033 630 bf 0.796569
 0.585907 0.0653186 c 11 10 1044 630 bf 12 10 1055 630 bf 0.815686 0.380392 0.0509804 c 11 10 1067 630 bf 0.796569 0.585907 0.0653186 c 11 10 1078 630 bf 0.815686 0.380392 0.0509804 c 12 10 1089 630 bf 0.802451 0.261275 0.0436275 c 11 10 1101 630 bf
 0.796569 0.585907 0.0653186 c 11 10 1112 630 bf 0.802451 0.261275 0.0436275 c 12 10 1123 630 bf 0.815686 0.380392 0.0509804 c 11 10 1135 630 bf 0.802451 0.261275 0.0436275 c 11 10 1146 630 bf 0.815686 0.380392 0.0509804 c 12 10 1157 630 bf 0.549755
 0.839706 0.244608 c 11 10 1169 630 bf 0.777451 0.791422 0.0796569 c 11 10 1180 630 bf 0.815686 0.380392 0.0509804 c 12 10 1191 630 bf 11 10 1203 630 bf 0.777451 0.791422 0.0796569 c 11 10 1214 630 bf 0.815686 0.380392 0.0509804 c 12 10 1225 630 bf
 11 10 1237 630 bf 0.714951 0.0509804 0.0269608 c 12 10 1248 630 bf 0.802451 0.261275 0.0436275 c 11 10 1260 630 bf 0.815686 0.380392 0.0509804 c 11 10 1271 630 bf 0.68799 0.869118 0.144608 c 12 10 1282 630 bf 0.788113 0.13223 0.0356618 c 11 10 1294
 630 bf 0.4 0.807843 0.352941 c 11 10 1305 630 bf 0.796569 0.585907 0.0653186 c 12 10 1316 630 bf 0.68799 0.869118 0.144608 c 11 10 1328 630 bf 0.815686 0.380392 0.0509804 c 11 10 1339 630 bf 0.4 0.807843 0.352941 c 12 10 1350 630 bf 0.68799 0.869118
 0.144608 c 11 10 1362 630 bf 0.18652 0.763235 0.706618 c 11 10 1373 630 bf 0.0906863 0.594608 0.78125 c 12 10 1384 630 bf 0.29326 0.785539 0.529779 c 11 10 1396 630 bf 0.4 0.807843 0.352941 c 11 10 1407 630 bf 0.18652 0.763235 0.706618 c 12 10 1418
 630 bf 0.29326 0.785539 0.529779 c 11 10 1430 630 bf 0.18652 0.763235 0.706618 c 11 10 1441 630 bf 0.122549 0.702941 0.786029 c 12 10 1452 630 bf 11 10 1464 630 bf 12 10 1475 630 bf 0.18652 0.763235 0.706618 c 11 10 1487 630 bf 11 10 1498 630 bf
 0.0428922 0.365196 0.687255 c 12 10 1509 630 bf 0.18652 0.763235 0.706618 c 11 10 1521 630 bf 0.0906863 0.594608 0.78125 c 11 10 1532 630 bf 0.4 0.807843 0.352941 c 12 10 1543 630 bf 0.29326 0.785539 0.529779 c 11 10 1555 630 bf 0.18652 0.763235
 0.706618 c 11 10 1566 630 bf 0.0588235 0.486275 0.776471 c 12 10 1577 630 bf 0.0428922 0.365196 0.687255 c 11 10 1589 630 bf 0.0588235 0.486275 0.776471 c 11 10 1600 630 bf 0.0906863 0.594608 0.78125 c 12 10 1611 630 bf 0.0588235 0.486275 0.776471 c
 11 10 1623 630 bf 0.0281863 0.253431 0.604902 c 11 10 1634 630 bf 12 10 1645 630 bf 11 10 1657 630 bf 0.0158128 0.151803 0.524225 c 11 10 1668 630 bf 12 10 1679 630 bf 0.0281863 0.253431 0.604902 c 11 10 1691 630 bf 12 10 1702 630 bf 0.00759013
 0.0728653 0.45351 c 11 10 1714 630 bf 11 10 1725 630 bf 12 10 1736 630 bf 11 10 1748 630 bf 11 10 1759 630 bf 11 10 1827 630 bf 11 10 1918 630 bf 11 10 579 640 bf 11 10 590 640 bf 12 10 601 640 bf 0.0281863 0.253431 0.604902 c 11 10 613 640 bf 11 10
 624 640 bf 12 10 635 640 bf 0.0428922 0.365196 0.687255 c 11 10 647 640 bf 0.0588235 0.486275 0.776471 c 11 10 658 640 bf 0.122549 0.702941 0.786029 c 12 10 669 640 bf 0.0588235 0.486275 0.776471 c 11 10 681 640 bf 0.18652 0.763235 0.706618 c 11 10
 692 640 bf 12 10 703 640 bf 0.122549 0.702941 0.786029 c 11 10 715 640 bf 0.4 0.807843 0.352941 c 11 10 726 640 bf 12 10 737 640 bf 0.68799 0.869118 0.144608 c 11 10 749 640 bf 0.549755 0.839706 0.244608 c 11 10 760 640 bf 0.4 0.807843 0.352941 c 12
 10 771 640 bf 0.796569 0.585907 0.0653186 c 11 10 783 640 bf 12 10 794 640 bf 0.68799 0.869118 0.144608 c 11 10 806 640 bf 0.777451 0.791422 0.0796569 c 11 10 817 640 bf 12 10 828 640 bf 0.4 0.807843 0.352941 c 11 10 840 640 bf 0.777451 0.791422
 0.0796569 c 11 10 851 640 bf 0.68799 0.869118 0.144608 c 12 10 862 640 bf 0.777451 0.791422 0.0796569 c 11 10 874 640 bf 11 10 885 640 bf 0.549755 0.839706 0.244608 c 12 10 896 640 bf 0.796569 0.585907 0.0653186 c 11 10 908 640 bf 0.815686 0.380392
 0.0509804 c 11 10 919 640 bf 0.777451 0.791422 0.0796569 c 12 10 930 640 bf 0.815686 0.380392 0.0509804 c 11 10 942 640 bf 0.796569 0.585907 0.0653186 c 11 10 953 640 bf 12 10 964 640 bf 0.802451 0.261275 0.0436275 c 11 10 976 640 bf 0.777451
 0.791422 0.0796569 c 11 10 987 640 bf 0.796569 0.585907 0.0653186 c 12 10 998 640 bf 0.802451 0.261275 0.0436275 c 11 10 1010 640 bf 0.68799 0.869118 0.144608 c 12 10 1021 640 bf 0.802451 0.261275 0.0436275 c 11 10 1033 640 bf 0.788113 0.13223
 0.0356618 c 11 10 1044 640 bf 0.777451 0.791422 0.0796569 c 12 10 1055 640 bf 0.815686 0.380392 0.0509804 c 11 10 1067 640 bf 11 10 1078 640 bf 12 10 1089 640 bf 0.802451 0.261275 0.0436275 c 11 10 1101 640 bf 0.815686 0.380392 0.0509804 c 11 10
 1112 640 bf 0.802451 0.261275 0.0436275 c 12 10 1123 640 bf 0.815686 0.380392 0.0509804 c 11 10 1135 640 bf 0.68799 0.869118 0.144608 c 11 10 1146 640 bf 0.802451 0.261275 0.0436275 c 12 10 1157 640 bf 0.815686 0.380392 0.0509804 c 11 10 1169 640 bf
 0.802451 0.261275 0.0436275 c 11 10 1180 640 bf 0.796569 0.585907 0.0653186 c 12 10 1191 640 bf 0.802451 0.261275 0.0436275 c 11 10 1203 640 bf 0.796569 0.585907 0.0653186 c 11 10 1214 640 bf 12 10 1225 640 bf 11 10 1237 640 bf 12 10 1248 640 bf
 0.815686 0.380392 0.0509804 c 11 10 1260 640 bf 0.802451 0.261275 0.0436275 c 11 10 1271 640 bf 0.777451 0.791422 0.0796569 c 12 10 1282 640 bf 0.68799 0.869118 0.144608 c 11 10 1294 640 bf 0.549755 0.839706 0.244608 c 11 10 1305 640 bf 0.68799
 0.869118 0.144608 c 12 10 1316 640 bf 11 10 1328 640 bf 0.18652 0.763235 0.706618 c 11 10 1339 640 bf 0.29326 0.785539 0.529779 c 12 10 1350 640 bf 0.4 0.807843 0.352941 c 11 10 1362 640 bf 11 10 1373 640 bf 0.549755 0.839706 0.244608 c 12 10 1384
 640 bf 0.18652 0.763235 0.706618 c 11 10 1396 640 bf 11 10 1407 640 bf 0.4 0.807843 0.352941 c 12 10 1418 640 bf 11 10 1430 640 bf 0.18652 0.763235 0.706618 c 11 10 1441 640 bf 12 10 1452 640 bf 0.4 0.807843 0.352941 c 11 10 1464 640 bf 0.18652
 0.763235 0.706618 c 12 10 1475 640 bf 0.122549 0.702941 0.786029 c 11 10 1487 640 bf 0.18652 0.763235 0.706618 c 11 10 1498 640 bf 0.122549 0.702941 0.786029 c 12 10 1509 640 bf 11 10 1521 640 bf 11 10 1532 640 bf 12 10 1543 640 bf 0.0906863
 0.594608 0.78125 c 11 10 1555 640 bf 0.4 0.807843 0.352941 c 11 10 1566 640 bf 0.0428922 0.365196 0.687255 c 12 10 1577 640 bf 0.0588235 0.486275 0.776471 c 11 10 1589 640 bf 0.0906863 0.594608 0.78125 c 11 10 1600 640 bf 0.0588235 0.486275 0.776471
 c 12 10 1611 640 bf 0.0906863 0.594608 0.78125 c 11 10 1623 640 bf 0.0158128 0.151803 0.524225 c 11 10 1634 640 bf 0.0428922 0.365196 0.687255 c 12 10 1645 640 bf 0.0281863 0.253431 0.604902 c 11 10 1657 640 bf 0.0158128 0.151803 0.524225 c 11 10
 1668 640 bf 0.00759013 0.0728653 0.45351 c 12 10 1679 640 bf 0.0281863 0.253431 0.604902 c 11 10 1691 640 bf 0.00759013 0.0728653 0.45351 c 12 10 1702 640 bf 11 10 1714 640 bf 0.0158128 0.151803 0.524225 c 12 10 1736 640 bf 11 10 1759 640 bf
 0.00759013 0.0728653 0.45351 c 11 10 1827 640 bf 12 10 1872 640 bf 11 10 1884 640 bf 11 9 579 650 bf 11 9 590 650 bf 12 9 601 650 bf 0.0158128 0.151803 0.524225 c 11 9 613 650 bf 0.0281863 0.253431 0.604902 c 11 9 624 650 bf 0.0588235 0.486275
 0.776471 c 12 9 635 650 bf 0.0906863 0.594608 0.78125 c 11 9 647 650 bf 0.122549 0.702941 0.786029 c 11 9 658 650 bf 0.0588235 0.486275 0.776471 c 12 9 669 650 bf 0.18652 0.763235 0.706618 c 11 9 681 650 bf 11 9 692 650 bf 12 9 703 650 bf 0.29326
 0.785539 0.529779 c 11 9 715 650 bf 0.4 0.807843 0.352941 c 11 9 726 650 bf 12 9 737 650 bf 0.68799 0.869118 0.144608 c 11 9 749 650 bf 0.777451 0.791422 0.0796569 c 11 9 760 650 bf 12 9 771 650 bf 0.4 0.807843 0.352941 c 11 9 783 650 bf 12 9 794
 650 bf 0.549755 0.839706 0.244608 c 11 9 806 650 bf 11 9 817 650 bf 0.777451 0.791422 0.0796569 c 12 9 828 650 bf 0.549755 0.839706 0.244608 c 11 9 840 650 bf 0.777451 0.791422 0.0796569 c 11 9 851 650 bf 12 9 862 650 bf 0.796569 0.585907 0.0653186
 c 11 9 874 650 bf 0.777451 0.791422 0.0796569 c 11 9 885 650 bf 0.68799 0.869118 0.144608 c 12 9 896 650 bf 0.796569 0.585907 0.0653186 c 11 9 908 650 bf 0.777451 0.791422 0.0796569 c 11 9 919 650 bf 0.68799 0.869118 0.144608 c 12 9 930 650 bf
 0.796569 0.585907 0.0653186 c 11 9 942 650 bf 0.68799 0.869118 0.144608 c 11 9 953 650 bf 0.777451 0.791422 0.0796569 c 12 9 964 650 bf 0.802451 0.261275 0.0436275 c 11 9 976 650 bf 0.815686 0.380392 0.0509804 c 11 9 987 650 bf 0.796569 0.585907
 0.0653186 c 12 9 998 650 bf 0.802451 0.261275 0.0436275 c 11 9 1010 650 bf 0.68799 0.869118 0.144608 c 12 9 1021 650 bf 0.802451 0.261275 0.0436275 c 11 9 1033 650 bf 0.788113 0.13223 0.0356618 c 11 9 1044 650 bf 0.777451 0.791422 0.0796569 c 12 9
 1055 650 bf 11 9 1067 650 bf 0.68799 0.869118 0.144608 c 11 9 1078 650 bf 0.815686 0.380392 0.0509804 c 12 9 1089 650 bf 0.788113 0.13223 0.0356618 c 11 9 1101 650 bf 0.68799 0.869118 0.144608 c 11 9 1112 650 bf 0.815686 0.380392 0.0509804 c 12 9
 1123 650 bf 0.802451 0.261275 0.0436275 c 11 9 1135 650 bf 0.777451 0.791422 0.0796569 c 11 9 1146 650 bf 12 9 1157 650 bf 0.796569 0.585907 0.0653186 c 11 9 1169 650 bf 11 9 1180 650 bf 0.815686 0.380392 0.0509804 c 12 9 1191 650 bf 0.796569
 0.585907 0.0653186 c 11 9 1203 650 bf 0.802451 0.261275 0.0436275 c 11 9 1214 650 bf 0.796569 0.585907 0.0653186 c 12 9 1225 650 bf 0.777451 0.791422 0.0796569 c 11 9 1237 650 bf 0.68799 0.869118 0.144608 c 12 9 1248 650 bf 0.777451 0.791422
 0.0796569 c 11 9 1260 650 bf 0.796569 0.585907 0.0653186 c 11 9 1271 650 bf 0.815686 0.380392 0.0509804 c 12 9 1282 650 bf 11 9 1294 650 bf 0.796569 0.585907 0.0653186 c 11 9 1305 650 bf 0.68799 0.869118 0.144608 c 12 9 1316 650 bf 0.815686 0.380392
 0.0509804 c 11 9 1328 650 bf 0.777451 0.791422 0.0796569 c 11 9 1339 650 bf 0.122549 0.702941 0.786029 c 12 9 1350 650 bf 0.777451 0.791422 0.0796569 c 11 9 1362 650 bf 0.549755 0.839706 0.244608 c 11 9 1373 650 bf 0.18652 0.763235 0.706618 c 12 9
 1384 650 bf 11 9 1396 650 bf 0.29326 0.785539 0.529779 c 11 9 1407 650 bf 0.18652 0.763235 0.706618 c 12 9 1418 650 bf 0.29326 0.785539 0.529779 c 11 9 1430 650 bf 0.18652 0.763235 0.706618 c 11 9 1441 650 bf 0.122549 0.702941 0.786029 c 12 9 1452
 650 bf 0.4 0.807843 0.352941 c 11 9 1464 650 bf 0.122549 0.702941 0.786029 c 12 9 1475 650 bf 0.29326 0.785539 0.529779 c 11 9 1487 650 bf 0.0906863 0.594608 0.78125 c 11 9 1498 650 bf 12 9 1509 650 bf 11 9 1521 650 bf 0.122549 0.702941 0.786029 c
 11 9 1532 650 bf 12 9 1543 650 bf 0.18652 0.763235 0.706618 c 11 9 1555 650 bf 0.29326 0.785539 0.529779 c 11 9 1566 650 bf 0.0906863 0.594608 0.78125 c 12 9 1577 650 bf 0.0588235 0.486275 0.776471 c 11 9 1589 650 bf 11 9 1600 650 bf 0.0281863
 0.253431 0.604902 c 12 9 1611 650 bf 0.0428922 0.365196 0.687255 c 11 9 1623 650 bf 11 9 1634 650 bf 0.0158128 0.151803 0.524225 c 12 9 1645 650 bf 11 9 1657 650 bf 11 9 1668 650 bf 0.0281863 0.253431 0.604902 c 12 9 1679 650 bf 0.0158128 0.151803
 0.524225 c 11 9 1691 650 bf 12 9 1702 650 bf 0.00759013 0.0728653 0.45351 c 11 9 1714 650 bf 11 9 1725 650 bf 12 9 1736 650 bf 11 9 1748 650 bf 11 9 1759 650 bf 12 9 1770 650 bf 11 9 1816 650 bf 11 10 590 659 bf 0.0158128 0.151803 0.524225 c 12 10
 601 659 bf 11 10 613 659 bf 0.0281863 0.253431 0.604902 c 11 10 624 659 bf 0.0588235 0.486275 0.776471 c 12 10 635 659 bf 0.0428922 0.365196 0.687255 c 11 10 647 659 bf 0.0588235 0.486275 0.776471 c 11 10 658 659 bf 0.122549 0.702941 0.786029 c 12
 10 669 659 bf 0.0906863 0.594608 0.78125 c 11 10 681 659 bf 0.0588235 0.486275 0.776471 c 11 10 692 659 bf 0.29326 0.785539 0.529779 c 12 10 703 659 bf 0.18652 0.763235 0.706618 c 11 10 715 659 bf 0.122549 0.702941 0.786029 c 11 10 726 659 bf
 0.549755 0.839706 0.244608 c 12 10 737 659 bf 0.4 0.807843 0.352941 c 11 10 749 659 bf 0.777451 0.791422 0.0796569 c 11 10 760 659 bf 0.68799 0.869118 0.144608 c 12 10 771 659 bf 0.549755 0.839706 0.244608 c 11 10 783 659 bf 0.4 0.807843 0.352941 c
 12 10 794 659 bf 0.549755 0.839706 0.244608 c 11 10 806 659 bf 11 10 817 659 bf 0.68799 0.869118 0.144608 c 12 10 828 659 bf 0.4 0.807843 0.352941 c 11 10 840 659 bf 0.796569 0.585907 0.0653186 c 11 10 851 659 bf 0.815686 0.380392 0.0509804 c 12 10
 862 659 bf 0.68799 0.869118 0.144608 c 11 10 874 659 bf 0.4 0.807843 0.352941 c 11 10 885 659 bf 0.777451 0.791422 0.0796569 c 12 10 896 659 bf 0.68799 0.869118 0.144608 c 11 10 908 659 bf 0.796569 0.585907 0.0653186 c 11 10 919 659 bf 0.549755
 0.839706 0.244608 c 12 10 930 659 bf 11 10 942 659 bf 0.777451 0.791422 0.0796569 c 11 10 953 659 bf 0.815686 0.380392 0.0509804 c 12 10 964 659 bf 0.777451 0.791422 0.0796569 c 11 10 976 659 bf 0.802451 0.261275 0.0436275 c 11 10 987 659 bf
 0.573162 0.0254902 0.017402 c 12 10 998 659 bf 0.796569 0.585907 0.0653186 c 11 10 1010 659 bf 0.68799 0.869118 0.144608 c 12 10 1021 659 bf 0.796569 0.585907 0.0653186 c 11 10 1033 659 bf 0.815686 0.380392 0.0509804 c 11 10 1044 659 bf 12 10 1055
 659 bf 0.796569 0.585907 0.0653186 c 11 10 1067 659 bf 0.68799 0.869118 0.144608 c 11 10 1078 659 bf 0.796569 0.585907 0.0653186 c 12 10 1089 659 bf 0.802451 0.261275 0.0436275 c 11 10 1101 659 bf 0.815686 0.380392 0.0509804 c 11 10 1112 659 bf 12
 10 1123 659 bf 0.777451 0.791422 0.0796569 c 11 10 1135 659 bf 11 10 1146 659 bf 0.802451 0.261275 0.0436275 c 12 10 1157 659 bf 11 10 1169 659 bf 0.714951 0.0509804 0.0269608 c 11 10 1180 659 bf 0.777451 0.791422 0.0796569 c 12 10 1191 659 bf
 0.796569 0.585907 0.0653186 c 11 10 1203 659 bf 11 10 1214 659 bf 0.815686 0.380392 0.0509804 c 12 10 1225 659 bf 0.796569 0.585907 0.0653186 c 11 10 1237 659 bf 0.815686 0.380392 0.0509804 c 12 10 1248 659 bf 0.796569 0.585907 0.0653186 c 11 10
 1260 659 bf 0.68799 0.869118 0.144608 c 11 10 1271 659 bf 0.796569 0.585907 0.0653186 c 12 10 1282 659 bf 0.802451 0.261275 0.0436275 c 11 10 1294 659 bf 0.777451 0.791422 0.0796569 c 11 10 1305 659 bf 0.815686 0.380392 0.0509804 c 12 10 1316 659 bf
 0.796569 0.585907 0.0653186 c 11 10 1328 659 bf 0.4 0.807843 0.352941 c 11 10 1339 659 bf 0.29326 0.785539 0.529779 c 12 10 1350 659 bf 0.68799 0.869118 0.144608 c 11 10 1362 659 bf 11 10 1373 659 bf 0.18652 0.763235 0.706618 c 12 10 1384 659 bf 11
 10 1396 659 bf 0.122549 0.702941 0.786029 c 11 10 1407 659 bf 0.29326 0.785539 0.529779 c 12 10 1418 659 bf 11 10 1430 659 bf 0.4 0.807843 0.352941 c 11 10 1441 659 bf 0.29326 0.785539 0.529779 c 12 10 1452 659 bf 0.0906863 0.594608 0.78125 c 11 10
 1464 659 bf 0.29326 0.785539 0.529779 c 12 10 1475 659 bf 0.122549 0.702941 0.786029 c 11 10 1487 659 bf 0.18652 0.763235 0.706618 c 11 10 1498 659 bf 0.122549 0.702941 0.786029 c 12 10 1509 659 bf 0.29326 0.785539 0.529779 c 11 10 1521 659 bf 0.4
 0.807843 0.352941 c 11 10 1532 659 bf 0.18652 0.763235 0.706618 c 12 10 1543 659 bf 0.0588235 0.486275 0.776471 c 11 10 1555 659 bf 0.122549 0.702941 0.786029 c 11 10 1566 659 bf 0.0588235 0.486275 0.776471 c 12 10 1577 659 bf 11 10 1589 659 bf 11
 10 1600 659 bf 0.0428922 0.365196 0.687255 c 12 10 1611 659 bf 11 10 1623 659 bf 11 10 1634 659 bf 0.0281863 0.253431 0.604902 c 12 10 1645 659 bf 0.00759013 0.0728653 0.45351 c 11 10 1657 659 bf 11 10 1668 659 bf 0.0158128 0.151803 0.524225 c 12 10
 1679 659 bf 0.0281863 0.253431 0.604902 c 11 10 1691 659 bf 0.00759013 0.0728653 0.45351 c 12 10 1702 659 bf 11 10 1714 659 bf 11 10 1725 659 bf 12 10 1736 659 bf 11 10 1748 659 bf 11 10 1759 659 bf 12 10 1770 659 bf 11 10 1782 659 bf 11 10 1827 659
 bf 12 10 1838 659 bf 12 10 1872 659 bf 11 10 590 669 bf 12 10 601 669 bf 0.0158128 0.151803 0.524225 c 11 10 613 669 bf 11 10 624 669 bf 0.0588235 0.486275 0.776471 c 12 10 635 669 bf 0.0428922 0.365196 0.687255 c 11 10 647 669 bf 0.0281863 0.253431
 0.604902 c 11 10 658 669 bf 0.0906863 0.594608 0.78125 c 12 10 669 669 bf 0.122549 0.702941 0.786029 c 11 10 681 669 bf 11 10 692 669 bf 12 10 703 669 bf 11 10 715 669 bf 0.4 0.807843 0.352941 c 11 10 726 669 bf 12 10 737 669 bf 11 10 749 669 bf
 0.29326 0.785539 0.529779 c 11 10 760 669 bf 0.18652 0.763235 0.706618 c 12 10 771 669 bf 0.549755 0.839706 0.244608 c 11 10 783 669 bf 0.777451 0.791422 0.0796569 c 12 10 794 669 bf 0.29326 0.785539 0.529779 c 11 10 806 669 bf 0.777451 0.791422
 0.0796569 c 11 10 817 669 bf 0.68799 0.869118 0.144608 c 12 10 828 669 bf 0.29326 0.785539 0.529779 c 11 10 840 669 bf 0.796569 0.585907 0.0653186 c 11 10 851 669 bf 0.549755 0.839706 0.244608 c 12 10 862 669 bf 0.796569 0.585907 0.0653186 c 11 10
 874 669 bf 0.29326 0.785539 0.529779 c 11 10 885 669 bf 0.802451 0.261275 0.0436275 c 12 10 896 669 bf 0.777451 0.791422 0.0796569 c 11 10 908 669 bf 0.549755 0.839706 0.244608 c 11 10 919 669 bf 0.796569 0.585907 0.0653186 c 12 10 930 669 bf 11 10
 942 669 bf 0.68799 0.869118 0.144608 c 11 10 953 669 bf 0.815686 0.380392 0.0509804 c 12 10 964 669 bf 11 10 976 669 bf 11 10 987 669 bf 0.796569 0.585907 0.0653186 c 12 10 998 669 bf 0.777451 0.791422 0.0796569 c 11 10 1010 669 bf 0.802451 0.261275
 0.0436275 c 12 10 1021 669 bf 11 10 1033 669 bf 0.796569 0.585907 0.0653186 c 11 10 1044 669 bf 12 10 1055 669 bf 0.815686 0.380392 0.0509804 c 11 10 1067 669 bf 0.802451 0.261275 0.0436275 c 11 10 1078 669 bf 0.815686 0.380392 0.0509804 c 12 10
 1089 669 bf 0.796569 0.585907 0.0653186 c 11 10 1101 669 bf 0.802451 0.261275 0.0436275 c 11 10 1112 669 bf 0.796569 0.585907 0.0653186 c 12 10 1123 669 bf 0.802451 0.261275 0.0436275 c 11 10 1135 669 bf 11 10 1146 669 bf 12 10 1157 669 bf 0.4
 0.807843 0.352941 c 11 10 1169 669 bf 0.788113 0.13223 0.0356618 c 11 10 1180 669 bf 0.796569 0.585907 0.0653186 c 12 10 1191 669 bf 0.777451 0.791422 0.0796569 c 11 10 1203 669 bf 0.802451 0.261275 0.0436275 c 11 10 1214 669 bf 0.68799 0.869118
 0.144608 c 12 10 1225 669 bf 0.796569 0.585907 0.0653186 c 11 10 1237 669 bf 12 10 1248 669 bf 0.815686 0.380392 0.0509804 c 11 10 1260 669 bf 11 10 1271 669 bf 0.777451 0.791422 0.0796569 c 12 10 1282 669 bf 0.802451 0.261275 0.0436275 c 11 10 1294
 669 bf 11 10 1305 669 bf 0.549755 0.839706 0.244608 c 12 10 1316 669 bf 11 10 1328 669 bf 0.4 0.807843 0.352941 c 11 10 1339 669 bf 0.29326 0.785539 0.529779 c 12 10 1350 669 bf 0.4 0.807843 0.352941 c 11 10 1362 669 bf 0.777451 0.791422 0.0796569 c
 11 10 1373 669 bf 0.4 0.807843 0.352941 c 12 10 1384 669 bf 0.29326 0.785539 0.529779 c 11 10 1396 669 bf 0.18652 0.763235 0.706618 c 11 10 1407 669 bf 0.122549 0.702941 0.786029 c 12 10 1418 669 bf 0.18652 0.763235 0.706618 c 11 10 1430 669 bf 0.4
 0.807843 0.352941 c 11 10 1441 669 bf 12 10 1452 669 bf 0.122549 0.702941 0.786029 c 11 10 1464 669 bf 0.4 0.807843 0.352941 c 12 10 1475 669 bf 0.122549 0.702941 0.786029 c 11 10 1487 669 bf 0.4 0.807843 0.352941 c 11 10 1498 669 bf 0.18652
 0.763235 0.706618 c 12 10 1509 669 bf 0.122549 0.702941 0.786029 c 11 10 1521 669 bf 11 10 1532 669 bf 12 10 1543 669 bf 11 10 1555 669 bf 0.29326 0.785539 0.529779 c 11 10 1566 669 bf 0.122549 0.702941 0.786029 c 12 10 1577 669 bf 0.0906863
 0.594608 0.78125 c 11 10 1589 669 bf 0.0588235 0.486275 0.776471 c 11 10 1600 669 bf 0.0906863 0.594608 0.78125 c 12 10 1611 669 bf 0.0428922 0.365196 0.687255 c 11 10 1623 669 bf 11 10 1634 669 bf 0.0281863 0.253431 0.604902 c 12 10 1645 669 bf
 0.0158128 0.151803 0.524225 c 11 10 1657 669 bf 11 10 1668 669 bf 12 10 1679 669 bf 11 10 1691 669 bf 0.00759013 0.0728653 0.45351 c 12 10 1702 669 bf 11 10 1714 669 bf 12 10 1736 669 bf 11 10 1748 669 bf 11 10 1759 669 bf 12 10 601 679 bf 11 10 613
 679 bf 0.0281863 0.253431 0.604902 c 11 10 624 679 bf 0.0428922 0.365196 0.687255 c 12 10 635 679 bf 11 10 647 679 bf 11 10 658 679 bf 0.0588235 0.486275 0.776471 c 12 10 669 679 bf 0.18652 0.763235 0.706618 c 11 10 681 679 bf 0.122549 0.702941
 0.786029 c 11 10 692 679 bf 0.29326 0.785539 0.529779 c 12 10 703 679 bf 11 10 715 679 bf 0.4 0.807843 0.352941 c 11 10 726 679 bf 12 10 737 679 bf 0.18652 0.763235 0.706618 c 11 10 749 679 bf 0.549755 0.839706 0.244608 c 11 10 760 679 bf 0.4
 0.807843 0.352941 c 12 10 771 679 bf 0.777451 0.791422 0.0796569 c 11 10 783 679 bf 0.549755 0.839706 0.244608 c 12 10 794 679 bf 0.4 0.807843 0.352941 c 11 10 806 679 bf 0.549755 0.839706 0.244608 c 11 10 817 679 bf 12 10 828 679 bf 0.68799
 0.869118 0.144608 c 11 10 840 679 bf 11 10 851 679 bf 0.777451 0.791422 0.0796569 c 12 10 862 679 bf 0.4 0.807843 0.352941 c 11 10 874 679 bf 0.549755 0.839706 0.244608 c 11 10 885 679 bf 0.4 0.807843 0.352941 c 12 10 896 679 bf 0.68799 0.869118
 0.144608 c 11 10 908 679 bf 0.777451 0.791422 0.0796569 c 11 10 919 679 bf 0.549755 0.839706 0.244608 c 12 10 930 679 bf 0.815686 0.380392 0.0509804 c 11 10 942 679 bf 0.777451 0.791422 0.0796569 c 11 10 953 679 bf 0.549755 0.839706 0.244608 c 12 10
 964 679 bf 0.68799 0.869118 0.144608 c 11 10 976 679 bf 0.802451 0.261275 0.0436275 c 11 10 987 679 bf 12 10 998 679 bf 11 10 1010 679 bf 12 10 1021 679 bf 0.714951 0.0509804 0.0269608 c 11 10 1033 679 bf 0.815686 0.380392 0.0509804 c 11 10 1044 679
 bf 0.796569 0.585907 0.0653186 c 12 10 1055 679 bf 0.802451 0.261275 0.0436275 c 11 10 1067 679 bf 0.796569 0.585907 0.0653186 c 11 10 1078 679 bf 0.815686 0.380392 0.0509804 c 12 10 1089 679 bf 0.777451 0.791422 0.0796569 c 11 10 1101 679 bf 11 10
 1112 679 bf 0.815686 0.380392 0.0509804 c 12 10 1123 679 bf 0.796569 0.585907 0.0653186 c 11 10 1135 679 bf 11 10 1146 679 bf 0.549755 0.839706 0.244608 c 12 10 1157 679 bf 0.777451 0.791422 0.0796569 c 11 10 1169 679 bf 0.796569 0.585907 0.0653186
 c 11 10 1180 679 bf 0.802451 0.261275 0.0436275 c 12 10 1191 679 bf 0.68799 0.869118 0.144608 c 11 10 1203 679 bf 0.4 0.807843 0.352941 c 11 10 1214 679 bf 0.796569 0.585907 0.0653186 c 12 10 1225 679 bf 0.815686 0.380392 0.0509804 c 11 10 1237 679
 bf 0.777451 0.791422 0.0796569 c 12 10 1248 679 bf 0.802451 0.261275 0.0436275 c 11 10 1260 679 bf 11 10 1271 679 bf 0.796569 0.585907 0.0653186 c 12 10 1282 679 bf 0.4 0.807843 0.352941 c 11 10 1294 679 bf 0.68799 0.869118 0.144608 c 11 10 1305 679
 bf 12 10 1316 679 bf 0.29326 0.785539 0.529779 c 11 10 1328 679 bf 0.4 0.807843 0.352941 c 11 10 1339 679 bf 12 10 1350 679 bf 0.68799 0.869118 0.144608 c 11 10 1362 679 bf 0.4 0.807843 0.352941 c 11 10 1373 679 bf 0.29326 0.785539 0.529779 c 12 10
 1384 679 bf 11 10 1396 679 bf 0.4 0.807843 0.352941 c 11 10 1407 679 bf 12 10 1418 679 bf 0.29326 0.785539 0.529779 c 11 10 1430 679 bf 11 10 1441 679 bf 12 10 1452 679 bf 0.4 0.807843 0.352941 c 11 10 1464 679 bf 0.29326 0.785539 0.529779 c 12 10
 1475 679 bf 11 10 1487 679 bf 0.122549 0.702941 0.786029 c 11 10 1498 679 bf 12 10 1509 679 bf 0.29326 0.785539 0.529779 c 11 10 1521 679 bf 0.122549 0.702941 0.786029 c 11 10 1532 679 bf 0.4 0.807843 0.352941 c 12 10 1543 679 bf 0.29326 0.785539
 0.529779 c 11 10 1555 679 bf 0.0906863 0.594608 0.78125 c 11 10 1566 679 bf 0.0588235 0.486275 0.776471 c 12 10 1577 679 bf 0.0428922 0.365196 0.687255 c 11 10 1589 679 bf 0.0588235 0.486275 0.776471 c 11 10 1600 679 bf 0.0428922 0.365196 0.687255 c
 12 10 1611 679 bf 0.0281863 0.253431 0.604902 c 11 10 1623 679 bf 0.0588235 0.486275 0.776471 c 11 10 1634 679 bf 0.0281863 0.253431 0.604902 c 12 10 1645 679 bf 0.00759013 0.0728653 0.45351 c 11 10 1657 679 bf 11 10 1668 679 bf 12 10 1679 679 bf
 0.0158128 0.151803 0.524225 c 11 10 1691 679 bf 0.00759013 0.0728653 0.45351 c 12 10 1702 679 bf 11 10 1714 679 bf 11 10 1725 679 bf 12 10 1736 679 bf 11 10 1748 679 bf 12 10 1770 679 bf 12 10 1804 679 bf 11 10 1827 679 bf 11 10 1861 679 bf 11 9 590
 689 bf 0.0158128 0.151803 0.524225 c 12 9 601 689 bf 11 9 613 689 bf 0.0428922 0.365196 0.687255 c 11 9 624 689 bf 0.0281863 0.253431 0.604902 c 12 9 635 689 bf 0.0588235 0.486275 0.776471 c 11 9 647 689 bf 11 9 658 689 bf 0.18652 0.763235 0.706618
 c 12 9 669 689 bf 0.0588235 0.486275 0.776471 c 11 9 681 689 bf 0.0906863 0.594608 0.78125 c 11 9 692 689 bf 0.29326 0.785539 0.529779 c 12 9 703 689 bf 11 9 715 689 bf 0.68799 0.869118 0.144608 c 11 9 726 689 bf 0.0906863 0.594608 0.78125 c 12 9
 737 689 bf 0.4 0.807843 0.352941 c 11 9 749 689 bf 0.549755 0.839706 0.244608 c 11 9 760 689 bf 12 9 771 689 bf 0.29326 0.785539 0.529779 c 11 9 783 689 bf 0.4 0.807843 0.352941 c 12 9 794 689 bf 0.549755 0.839706 0.244608 c 11 9 806 689 bf 0.68799
 0.869118 0.144608 c 11 9 817 689 bf 0.815686 0.380392 0.0509804 c 12 9 828 689 bf 0.549755 0.839706 0.244608 c 11 9 840 689 bf 0.777451 0.791422 0.0796569 c 11 9 851 689 bf 0.4 0.807843 0.352941 c 12 9 862 689 bf 0.68799 0.869118 0.144608 c 11 9 874
 689 bf 0.796569 0.585907 0.0653186 c 11 9 885 689 bf 12 9 896 689 bf 0.777451 0.791422 0.0796569 c 11 9 908 689 bf 0.796569 0.585907 0.0653186 c 11 9 919 689 bf 0.549755 0.839706 0.244608 c 12 9 930 689 bf 0.796569 0.585907 0.0653186 c 11 9 942 689
 bf 0.68799 0.869118 0.144608 c 11 9 953 689 bf 0.796569 0.585907 0.0653186 c 12 9 964 689 bf 0.68799 0.869118 0.144608 c 11 9 976 689 bf 0.796569 0.585907 0.0653186 c 11 9 987 689 bf 12 9 998 689 bf 0.68799 0.869118 0.144608 c 11 9 1010 689 bf
 0.796569 0.585907 0.0653186 c 12 9 1021 689 bf 0.777451 0.791422 0.0796569 c 11 9 1033 689 bf 0.802451 0.261275 0.0436275 c 11 9 1044 689 bf 12 9 1055 689 bf 11 9 1067 689 bf 0.777451 0.791422 0.0796569 c 11 9 1078 689 bf 12 9 1089 689 bf 0.68799
 0.869118 0.144608 c 11 9 1101 689 bf 0.549755 0.839706 0.244608 c 11 9 1112 689 bf 0.788113 0.13223 0.0356618 c 12 9 1123 689 bf 0.815686 0.380392 0.0509804 c 11 9 1135 689 bf 11 9 1146 689 bf 0.777451 0.791422 0.0796569 c 12 9 1157 689 bf 0.815686
 0.380392 0.0509804 c 11 9 1169 689 bf 11 9 1180 689 bf 0.777451 0.791422 0.0796569 c 12 9 1191 689 bf 11 9 1203 689 bf 0.788113 0.13223 0.0356618 c 11 9 1214 689 bf 0.802451 0.261275 0.0436275 c 12 9 1225 689 bf 0.29326 0.785539 0.529779 c 11 9 1237
 689 bf 0.777451 0.791422 0.0796569 c 12 9 1248 689 bf 0.815686 0.380392 0.0509804 c 11 9 1260 689 bf 0.796569 0.585907 0.0653186 c 11 9 1271 689 bf 12 9 1282 689 bf 0.68799 0.869118 0.144608 c 11 9 1294 689 bf 0.815686 0.380392 0.0509804 c 11 9 1305
 689 bf 0.802451 0.261275 0.0436275 c 12 9 1316 689 bf 0.549755 0.839706 0.244608 c 11 9 1328 689 bf 0.29326 0.785539 0.529779 c 11 9 1339 689 bf 12 9 1350 689 bf 0.68799 0.869118 0.144608 c 11 9 1362 689 bf 11 9 1373 689 bf 0.29326 0.785539 0.529779
 c 12 9 1384 689 bf 0.18652 0.763235 0.706618 c 11 9 1396 689 bf 11 9 1407 689 bf 0.4 0.807843 0.352941 c 12 9 1418 689 bf 11 9 1430 689 bf 0.29326 0.785539 0.529779 c 11 9 1441 689 bf 0.4 0.807843 0.352941 c 12 9 1452 689 bf 0.18652 0.763235
 0.706618 c 11 9 1464 689 bf 0.29326 0.785539 0.529779 c 12 9 1475 689 bf 0.18652 0.763235 0.706618 c 11 9 1487 689 bf 0.122549 0.702941 0.786029 c 11 9 1498 689 bf 0.4 0.807843 0.352941 c 12 9 1509 689 bf 0.29326 0.785539 0.529779 c 11 9 1521 689 bf
 0.4 0.807843 0.352941 c 11 9 1532 689 bf 0.18652 0.763235 0.706618 c 12 9 1543 689 bf 0.29326 0.785539 0.529779 c 11 9 1555 689 bf 0.18652 0.763235 0.706618 c 11 9 1566 689 bf 0.0588235 0.486275 0.776471 c 12 9 1577 689 bf 0.0428922 0.365196
 0.687255 c 11 9 1589 689 bf 0.0588235 0.486275 0.776471 c 11 9 1600 689 bf 0.0281863 0.253431 0.604902 c 12 9 1611 689 bf 0.0428922 0.365196 0.687255 c 11 9 1623 689 bf 11 9 1634 689 bf 0.0158128 0.151803 0.524225 c 12 9 1645 689 bf 11 9 1657 689 bf
 11 9 1668 689 bf 0.00759013 0.0728653 0.45351 c 12 9 1679 689 bf 11 9 1691 689 bf 12 9 1702 689 bf 11 9 1714 689 bf 12 9 1736 689 bf 11 9 1748 689 bf 11 9 1816 689 bf 12 9 1838 689 bf 12 9 1872 689 bf 0.0158128 0.151803 0.524225 c 12 10 601 698 bf
 0.0281863 0.253431 0.604902 c 11 10 613 698 bf 11 10 624 698 bf 12 10 635 698 bf 0.0588235 0.486275 0.776471 c 11 10 647 698 bf 0.0906863 0.594608 0.78125 c 11 10 658 698 bf 0.0588235 0.486275 0.776471 c 12 10 669 698 bf 0.122549 0.702941 0.786029 c
 11 10 681 698 bf 11 10 692 698 bf 0.29326 0.785539 0.529779 c 12 10 703 698 bf 11 10 715 698 bf 11 10 726 698 bf 0.18652 0.763235 0.706618 c 12 10 737 698 bf 0.549755 0.839706 0.244608 c 11 10 749 698 bf 0.29326 0.785539 0.529779 c 11 10 760 698 bf
 0.4 0.807843 0.352941 c 12 10 771 698 bf 0.549755 0.839706 0.244608 c 11 10 783 698 bf 0.4 0.807843 0.352941 c 12 10 794 698 bf 0.796569 0.585907 0.0653186 c 11 10 806 698 bf 0.4 0.807843 0.352941 c 11 10 817 698 bf 0.29326 0.785539 0.529779 c 12 10
 828 698 bf 0.549755 0.839706 0.244608 c 11 10 840 698 bf 0.796569 0.585907 0.0653186 c 11 10 851 698 bf 0.549755 0.839706 0.244608 c 12 10 862 698 bf 0.796569 0.585907 0.0653186 c 11 10 874 698 bf 0.549755 0.839706 0.244608 c 11 10 885 698 bf
 0.68799 0.869118 0.144608 c 12 10 896 698 bf 0.796569 0.585907 0.0653186 c 11 10 908 698 bf 0.549755 0.839706 0.244608 c 11 10 919 698 bf 0.788113 0.13223 0.0356618 c 12 10 930 698 bf 0.68799 0.869118 0.144608 c 11 10 942 698 bf 0.549755 0.839706
 0.244608 c 11 10 953 698 bf 0.68799 0.869118 0.144608 c 12 10 964 698 bf 0.777451 0.791422 0.0796569 c 11 10 976 698 bf 0.796569 0.585907 0.0653186 c 11 10 987 698 bf 0.68799 0.869118 0.144608 c 12 10 998 698 bf 11 10 1010 698 bf 12 10 1021 698 bf
 0.796569 0.585907 0.0653186 c 11 10 1033 698 bf 0.777451 0.791422 0.0796569 c 11 10 1044 698 bf 0.815686 0.380392 0.0509804 c 12 10 1055 698 bf 11 10 1067 698 bf 11 10 1078 698 bf 0.777451 0.791422 0.0796569 c 12 10 1089 698 bf 0.815686 0.380392
 0.0509804 c 11 10 1101 698 bf 11 10 1112 698 bf 0.68799 0.869118 0.144608 c 12 10 1123 698 bf 0.815686 0.380392 0.0509804 c 11 10 1135 698 bf 0.4 0.807843 0.352941 c 11 10 1146 698 bf 0.777451 0.791422 0.0796569 c 12 10 1157 698 bf 11 10 1169 698 bf
 0.802451 0.261275 0.0436275 c 11 10 1180 698 bf 0.815686 0.380392 0.0509804 c 12 10 1191 698 bf 0.777451 0.791422 0.0796569 c 11 10 1203 698 bf 0.68799 0.869118 0.144608 c 11 10 1214 698 bf 0.802451 0.261275 0.0436275 c 12 10 1225 698 bf 0.815686
 0.380392 0.0509804 c 11 10 1237 698 bf 0.796569 0.585907 0.0653186 c 12 10 1248 698 bf 0.802451 0.261275 0.0436275 c 11 10 1260 698 bf 11 10 1271 698 bf 0.68799 0.869118 0.144608 c 12 10 1282 698 bf 0.788113 0.13223 0.0356618 c 11 10 1294 698 bf
 0.802451 0.261275 0.0436275 c 11 10 1305 698 bf 0.68799 0.869118 0.144608 c 12 10 1316 698 bf 0.4 0.807843 0.352941 c 11 10 1328 698 bf 0.549755 0.839706 0.244608 c 11 10 1339 698 bf 12 10 1350 698 bf 0.4 0.807843 0.352941 c 11 10 1362 698 bf
 0.68799 0.869118 0.144608 c 11 10 1373 698 bf 12 10 1384 698 bf 0.18652 0.763235 0.706618 c 11 10 1396 698 bf 0.4 0.807843 0.352941 c 11 10 1407 698 bf 12 10 1418 698 bf 0.29326 0.785539 0.529779 c 11 10 1430 698 bf 0.4 0.807843 0.352941 c 11 10
 1441 698 bf 12 10 1452 698 bf 0.18652 0.763235 0.706618 c 11 10 1464 698 bf 0.4 0.807843 0.352941 c 12 10 1475 698 bf 0.18652 0.763235 0.706618 c 11 10 1487 698 bf 0.122549 0.702941 0.786029 c 11 10 1498 698 bf 0.18652 0.763235 0.706618 c 12 10 1509
 698 bf 11 10 1521 698 bf 0.122549 0.702941 0.786029 c 11 10 1532 698 bf 0.0906863 0.594608 0.78125 c 12 10 1543 698 bf 0.4 0.807843 0.352941 c 11 10 1555 698 bf 0.0588235 0.486275 0.776471 c 11 10 1566 698 bf 12 10 1577 698 bf 0.0906863 0.594608
 0.78125 c 11 10 1589 698 bf 0.0588235 0.486275 0.776471 c 11 10 1600 698 bf 12 10 1611 698 bf 0.0281863 0.253431 0.604902 c 11 10 1623 698 bf 11 10 1634 698 bf 0.0428922 0.365196 0.687255 c 12 10 1645 698 bf 0.0281863 0.253431 0.604902 c 11 10 1657
 698 bf 0.00759013 0.0728653 0.45351 c 11 10 1668 698 bf 0.0158128 0.151803 0.524225 c 12 10 1679 698 bf 0.00759013 0.0728653 0.45351 c 11 10 1691 698 bf 12 10 1702 698 bf 11 10 1714 698 bf 11 10 1725 698 bf 11 10 1782 698 bf 12 10 1804 698 bf 11 10
 1816 698 bf 11 10 579 708 bf 11 10 590 708 bf 12 10 601 708 bf 0.0158128 0.151803 0.524225 c 11 10 613 708 bf 0.0281863 0.253431 0.604902 c 11 10 624 708 bf 12 10 635 708 bf 11 10 647 708 bf 0.0588235 0.486275 0.776471 c 11 10 658 708 bf 0.0906863
 0.594608 0.78125 c 12 10 669 708 bf 11 10 681 708 bf 11 10 692 708 bf 12 10 703 708 bf 0.29326 0.785539 0.529779 c 11 10 715 708 bf 0.4 0.807843 0.352941 c 11 10 726 708 bf 0.122549 0.702941 0.786029 c 12 10 737 708 bf 0.4 0.807843 0.352941 c 11 10
 749 708 bf 0.549755 0.839706 0.244608 c 11 10 760 708 bf 0.4 0.807843 0.352941 c 12 10 771 708 bf 0.68799 0.869118 0.144608 c 11 10 783 708 bf 0.549755 0.839706 0.244608 c 12 10 794 708 bf 0.68799 0.869118 0.144608 c 11 10 806 708 bf 0.4 0.807843
 0.352941 c 11 10 817 708 bf 0.549755 0.839706 0.244608 c 12 10 828 708 bf 0.4 0.807843 0.352941 c 11 10 840 708 bf 0.549755 0.839706 0.244608 c 11 10 851 708 bf 0.4 0.807843 0.352941 c 12 10 862 708 bf 0.777451 0.791422 0.0796569 c 11 10 874 708 bf
 0.68799 0.869118 0.144608 c 11 10 885 708 bf 0.777451 0.791422 0.0796569 c 12 10 896 708 bf 11 10 908 708 bf 0.796569 0.585907 0.0653186 c 11 10 919 708 bf 0.777451 0.791422 0.0796569 c 12 10 930 708 bf 0.796569 0.585907 0.0653186 c 11 10 942 708 bf
 11 10 953 708 bf 12 10 964 708 bf 11 10 976 708 bf 11 10 987 708 bf 12 10 998 708 bf 11 10 1010 708 bf 0.802451 0.261275 0.0436275 c 12 10 1021 708 bf 0.796569 0.585907 0.0653186 c 11 10 1033 708 bf 11 10 1044 708 bf 0.549755 0.839706 0.244608 c 12
 10 1055 708 bf 0.802451 0.261275 0.0436275 c 11 10 1067 708 bf 0.796569 0.585907 0.0653186 c 11 10 1078 708 bf 0.788113 0.13223 0.0356618 c 12 10 1089 708 bf 0.714951 0.0509804 0.0269608 c 11 10 1101 708 bf 0.815686 0.380392 0.0509804 c 11 10 1112
 708 bf 0.796569 0.585907 0.0653186 c 12 10 1123 708 bf 11 10 1135 708 bf 0.815686 0.380392 0.0509804 c 11 10 1146 708 bf 0.802451 0.261275 0.0436275 c 12 10 1157 708 bf 0.815686 0.380392 0.0509804 c 11 10 1169 708 bf 0.68799 0.869118 0.144608 c 11
 10 1180 708 bf 0.796569 0.585907 0.0653186 c 12 10 1191 708 bf 11 10 1203 708 bf 0.777451 0.791422 0.0796569 c 11 10 1214 708 bf 0.815686 0.380392 0.0509804 c 12 10 1225 708 bf 0.796569 0.585907 0.0653186 c 11 10 1237 708 bf 0.802451 0.261275
 0.0436275 c 12 10 1248 708 bf 11 10 1260 708 bf 0.815686 0.380392 0.0509804 c 11 10 1271 708 bf 0.796569 0.585907 0.0653186 c 12 10 1282 708 bf 0.815686 0.380392 0.0509804 c 11 10 1294 708 bf 0.68799 0.869118 0.144608 c 11 10 1305 708 bf 0.802451
 0.261275 0.0436275 c 12 10 1316 708 bf 0.796569 0.585907 0.0653186 c 11 10 1328 708 bf 0.29326 0.785539 0.529779 c 11 10 1339 708 bf 0.68799 0.869118 0.144608 c 12 10 1350 708 bf 0.549755 0.839706 0.244608 c 11 10 1362 708 bf 0.777451 0.791422
 0.0796569 c 11 10 1373 708 bf 0.122549 0.702941 0.786029 c 12 10 1384 708 bf 0.549755 0.839706 0.244608 c 11 10 1396 708 bf 11 10 1407 708 bf 0.4 0.807843 0.352941 c 12 10 1418 708 bf 11 10 1430 708 bf 11 10 1441 708 bf 12 10 1452 708 bf 0.0906863
 0.594608 0.78125 c 11 10 1464 708 bf 0.122549 0.702941 0.786029 c 12 10 1475 708 bf 11 10 1487 708 bf 11 10 1498 708 bf 12 10 1509 708 bf 11 10 1521 708 bf 11 10 1532 708 bf 0.18652 0.763235 0.706618 c 12 10 1543 708 bf 0.0906863 0.594608 0.78125 c
 11 10 1555 708 bf 0.0588235 0.486275 0.776471 c 11 10 1566 708 bf 12 10 1577 708 bf 0.0906863 0.594608 0.78125 c 11 10 1589 708 bf 0.0428922 0.365196 0.687255 c 11 10 1600 708 bf 12 10 1611 708 bf 0.0281863 0.253431 0.604902 c 11 10 1623 708 bf
 0.0158128 0.151803 0.524225 c 11 10 1634 708 bf 12 10 1645 708 bf 0.0281863 0.253431 0.604902 c 11 10 1657 708 bf 0.0158128 0.151803 0.524225 c 11 10 1668 708 bf 0.00759013 0.0728653 0.45351 c 12 10 1679 708 bf 11 10 1691 708 bf 12 10 1702 708 bf 11
 10 1714 708 bf 11 10 1748 708 bf 12 10 1770 708 bf 12 10 567 718 bf 11 10 579 718 bf 12 10 601 718 bf 0.0158128 0.151803 0.524225 c 11 10 613 718 bf 0.0281863 0.253431 0.604902 c 11 10 624 718 bf 0.0428922 0.365196 0.687255 c 12 10 635 718 bf
 0.0588235 0.486275 0.776471 c 11 10 647 718 bf 11 10 658 718 bf 0.122549 0.702941 0.786029 c 12 10 669 718 bf 0.0906863 0.594608 0.78125 c 11 10 681 718 bf 0.18652 0.763235 0.706618 c 11 10 692 718 bf 0.122549 0.702941 0.786029 c 12 10 703 718 bf
 0.18652 0.763235 0.706618 c 11 10 715 718 bf 0.4 0.807843 0.352941 c 11 10 726 718 bf 0.549755 0.839706 0.244608 c 12 10 737 718 bf 0.18652 0.763235 0.706618 c 11 10 749 718 bf 0.4 0.807843 0.352941 c 11 10 760 718 bf 12 10 771 718 bf 0.549755
 0.839706 0.244608 c 11 10 783 718 bf 0.18652 0.763235 0.706618 c 12 10 794 718 bf 0.796569 0.585907 0.0653186 c 11 10 806 718 bf 0.777451 0.791422 0.0796569 c 11 10 817 718 bf 0.18652 0.763235 0.706618 c 12 10 828 718 bf 0.122549 0.702941 0.786029 c
 11 10 840 718 bf 0.68799 0.869118 0.144608 c 11 10 851 718 bf 0.777451 0.791422 0.0796569 c 12 10 862 718 bf 0.68799 0.869118 0.144608 c 11 10 874 718 bf 0.777451 0.791422 0.0796569 c 11 10 885 718 bf 0.549755 0.839706 0.244608 c 12 10 896 718 bf
 0.4 0.807843 0.352941 c 11 10 908 718 bf 0.68799 0.869118 0.144608 c 11 10 919 718 bf 0.777451 0.791422 0.0796569 c 12 10 930 718 bf 11 10 942 718 bf 0.815686 0.380392 0.0509804 c 11 10 953 718 bf 0.68799 0.869118 0.144608 c 12 10 964 718 bf
 0.815686 0.380392 0.0509804 c 11 10 976 718 bf 0.796569 0.585907 0.0653186 c 11 10 987 718 bf 12 10 998 718 bf 0.815686 0.380392 0.0509804 c 11 10 1010 718 bf 0.777451 0.791422 0.0796569 c 12 10 1021 718 bf 11 10 1033 718 bf 0.796569 0.585907
 0.0653186 c 11 10 1044 718 bf 0.68799 0.869118 0.144608 c 12 10 1055 718 bf 0.777451 0.791422 0.0796569 c 11 10 1067 718 bf 0.788113 0.13223 0.0356618 c 11 10 1078 718 bf 0.802451 0.261275 0.0436275 c 12 10 1089 718 bf 0.796569 0.585907 0.0653186 c
 11 10 1101 718 bf 0.442279 0.00196078 0.00857843 c 11 10 1112 718 bf 0.796569 0.585907 0.0653186 c 12 10 1123 718 bf 0.68799 0.869118 0.144608 c 11 10 1135 718 bf 11 10 1146 718 bf 0.815686 0.380392 0.0509804 c 12 10 1157 718 bf 0.796569 0.585907
 0.0653186 c 11 10 1169 718 bf 0.777451 0.791422 0.0796569 c 11 10 1180 718 bf 0.788113 0.13223 0.0356618 c 12 10 1191 718 bf 0.815686 0.380392 0.0509804 c 11 10 1203 718 bf 11 10 1214 718 bf 0.68799 0.869118 0.144608 c 12 10 1225 718 bf 0.796569
 0.585907 0.0653186 c 11 10 1237 718 bf 12 10 1248 718 bf 0.802451 0.261275 0.0436275 c 11 10 1260 718 bf 0.815686 0.380392 0.0509804 c 11 10 1271 718 bf 0.802451 0.261275 0.0436275 c 12 10 1282 718 bf 0.68799 0.869118 0.144608 c 11 10 1294 718 bf
 0.802451 0.261275 0.0436275 c 11 10 1305 718 bf 12 10 1316 718 bf 0.777451 0.791422 0.0796569 c 11 10 1328 718 bf 11 10 1339 718 bf 12 10 1350 718 bf 0.796569 0.585907 0.0653186 c 11 10 1362 718 bf 0.549755 0.839706 0.244608 c 11 10 1373 718 bf
 0.29326 0.785539 0.529779 c 12 10 1384 718 bf 0.18652 0.763235 0.706618 c 11 10 1396 718 bf 0.4 0.807843 0.352941 c 11 10 1407 718 bf 0.549755 0.839706 0.244608 c 12 10 1418 718 bf 11 10 1430 718 bf 0.777451 0.791422 0.0796569 c 11 10 1441 718 bf
 0.549755 0.839706 0.244608 c 12 10 1452 718 bf 0.29326 0.785539 0.529779 c 11 10 1464 718 bf 0.18652 0.763235 0.706618 c 12 10 1475 718 bf 0.29326 0.785539 0.529779 c 11 10 1487 718 bf 0.0906863 0.594608 0.78125 c 11 10 1498 718 bf 0.18652 0.763235
 0.706618 c 12 10 1509 718 bf 11 10 1521 718 bf 0.122549 0.702941 0.786029 c 11 10 1532 718 bf 0.0588235 0.486275 0.776471 c 12 10 1543 718 bf 0.122549 0.702941 0.786029 c 11 10 1555 718 bf 0.0428922 0.365196 0.687255 c 11 10 1566 718 bf 0.0906863
 0.594608 0.78125 c 12 10 1577 718 bf 0.0588235 0.486275 0.776471 c 11 10 1589 718 bf 0.0428922 0.365196 0.687255 c 11 10 1600 718 bf 0.0588235 0.486275 0.776471 c 12 10 1611 718 bf 0.0281863 0.253431 0.604902 c 11 10 1623 718 bf 0.0428922 0.365196
 0.687255 c 11 10 1634 718 bf 0.0158128 0.151803 0.524225 c 12 10 1645 718 bf 11 10 1657 718 bf 11 10 1668 718 bf 0.00759013 0.0728653 0.45351 c 12 10 1679 718 bf 11 10 1691 718 bf 12 10 1702 718 bf 11 10 1714 718 bf 11 10 1725 718 bf 12 10 1736 718
 bf 11 10 1748 718 bf 12 10 1770 718 bf 11 10 1793 718 bf 12 10 1804 718 bf 11 10 1827 718 bf 12 10 1872 718 bf 11 9 590 728 bf 12 9 601 728 bf 11 9 613 728 bf 0.0428922 0.365196 0.687255 c 11 9 624 728 bf 12 9 635 728 bf 11 9 647 728 bf 0.0906863
 0.594608 0.78125 c 11 9 658 728 bf 0.122549 0.702941 0.786029 c 12 9 669 728 bf 11 9 681 728 bf 11 9 692 728 bf 0.18652 0.763235 0.706618 c 12 9 703 728 bf 0.29326 0.785539 0.529779 c 11 9 715 728 bf 0.18652 0.763235 0.706618 c 11 9 726 728 bf 0.4
 0.807843 0.352941 c 12 9 737 728 bf 0.122549 0.702941 0.786029 c 11 9 749 728 bf 0.18652 0.763235 0.706618 c 11 9 760 728 bf 0.549755 0.839706 0.244608 c 12 9 771 728 bf 0.18652 0.763235 0.706618 c 11 9 783 728 bf 0.549755 0.839706 0.244608 c 12 9
 794 728 bf 0.777451 0.791422 0.0796569 c 11 9 806 728 bf 0.549755 0.839706 0.244608 c 11 9 817 728 bf 0.4 0.807843 0.352941 c 12 9 828 728 bf 0.777451 0.791422 0.0796569 c 11 9 840 728 bf 0.68799 0.869118 0.144608 c 11 9 851 728 bf 0.549755 0.839706
 0.244608 c 12 9 862 728 bf 0.68799 0.869118 0.144608 c 11 9 874 728 bf 0.549755 0.839706 0.244608 c 11 9 885 728 bf 0.777451 0.791422 0.0796569 c 12 9 896 728 bf 11 9 908 728 bf 0.549755 0.839706 0.244608 c 11 9 919 728 bf 0.796569 0.585907
 0.0653186 c 12 9 930 728 bf 0.777451 0.791422 0.0796569 c 11 9 942 728 bf 11 9 953 728 bf 0.796569 0.585907 0.0653186 c 12 9 964 728 bf 0.777451 0.791422 0.0796569 c 11 9 976 728 bf 0.796569 0.585907 0.0653186 c 11 9 987 728 bf 0.549755 0.839706
 0.244608 c 12 9 998 728 bf 0.68799 0.869118 0.144608 c 11 9 1010 728 bf 0.815686 0.380392 0.0509804 c 12 9 1021 728 bf 0.777451 0.791422 0.0796569 c 11 9 1033 728 bf 11 9 1044 728 bf 0.68799 0.869118 0.144608 c 12 9 1055 728 bf 0.802451 0.261275
 0.0436275 c 11 9 1067 728 bf 0.68799 0.869118 0.144608 c 11 9 1078 728 bf 0.777451 0.791422 0.0796569 c 12 9 1089 728 bf 0.788113 0.13223 0.0356618 c 11 9 1101 728 bf 0.796569 0.585907 0.0653186 c 11 9 1112 728 bf 12 9 1123 728 bf 0.815686 0.380392
 0.0509804 c 11 9 1135 728 bf 11 9 1146 728 bf 0.777451 0.791422 0.0796569 c 12 9 1157 728 bf 0.815686 0.380392 0.0509804 c 11 9 1169 728 bf 0.68799 0.869118 0.144608 c 11 9 1180 728 bf 12 9 1191 728 bf 0.815686 0.380392 0.0509804 c 11 9 1203 728 bf
 0.802451 0.261275 0.0436275 c 11 9 1214 728 bf 0.777451 0.791422 0.0796569 c 12 9 1225 728 bf 0.796569 0.585907 0.0653186 c 11 9 1237 728 bf 0.777451 0.791422 0.0796569 c 12 9 1248 728 bf 0.815686 0.380392 0.0509804 c 11 9 1260 728 bf 11 9 1271 728
 bf 0.802451 0.261275 0.0436275 c 12 9 1282 728 bf 0.549755 0.839706 0.244608 c 11 9 1294 728 bf 0.68799 0.869118 0.144608 c 11 9 1305 728 bf 12 9 1316 728 bf 0.549755 0.839706 0.244608 c 11 9 1328 728 bf 0.788113 0.13223 0.0356618 c 11 9 1339 728 bf
 0.4 0.807843 0.352941 c 12 9 1350 728 bf 0.549755 0.839706 0.244608 c 11 9 1362 728 bf 0.68799 0.869118 0.144608 c 11 9 1373 728 bf 0.29326 0.785539 0.529779 c 12 9 1384 728 bf 0.4 0.807843 0.352941 c 11 9 1396 728 bf 0.777451 0.791422 0.0796569 c
 11 9 1407 728 bf 0.549755 0.839706 0.244608 c 12 9 1418 728 bf 0.4 0.807843 0.352941 c 11 9 1430 728 bf 0.68799 0.869118 0.144608 c 11 9 1441 728 bf 0.122549 0.702941 0.786029 c 12 9 1452 728 bf 0.4 0.807843 0.352941 c 11 9 1464 728 bf 0.122549
 0.702941 0.786029 c 12 9 1475 728 bf 0.0906863 0.594608 0.78125 c 11 9 1487 728 bf 0.122549 0.702941 0.786029 c 11 9 1498 728 bf 0.4 0.807843 0.352941 c 12 9 1509 728 bf 11 9 1521 728 bf 0.122549 0.702941 0.786029 c 11 9 1532 728 bf 0.0906863
 0.594608 0.78125 c 12 9 1543 728 bf 0.4 0.807843 0.352941 c 11 9 1555 728 bf 0.0906863 0.594608 0.78125 c 11 9 1566 728 bf 0.0588235 0.486275 0.776471 c 12 9 1577 728 bf 11 9 1589 728 bf 0.0428922 0.365196 0.687255 c 11 9 1600 728 bf 12 9 1611 728
 bf 0.0281863 0.253431 0.604902 c 11 9 1623 728 bf 11 9 1634 728 bf 0.0158128 0.151803 0.524225 c 12 9 1645 728 bf 0.0281863 0.253431 0.604902 c 11 9 1657 728 bf 0.0158128 0.151803 0.524225 c 11 9 1668 728 bf 0.00759013 0.0728653 0.45351 c 12 9 1679
 728 bf 11 9 1691 728 bf 12 9 1702 728 bf 11 9 1714 728 bf 11 9 1725 728 bf 12 9 1736 728 bf 11 9 1748 728 bf 11 9 1759 728 bf 12 9 1770 728 bf 11 9 1793 728 bf 11 9 1827 728 bf 12 9 1838 728 bf 11 9 1861 728 bf 11 9 1884 728 bf 11 10 579 737 bf 12
 10 601 737 bf 0.0158128 0.151803 0.524225 c 11 10 613 737 bf 0.0281863 0.253431 0.604902 c 11 10 624 737 bf 0.0428922 0.365196 0.687255 c 12 10 635 737 bf 0.0281863 0.253431 0.604902 c 11 10 647 737 bf 0.122549 0.702941 0.786029 c 11 10 658 737 bf
 0.0906863 0.594608 0.78125 c 12 10 669 737 bf 0.122549 0.702941 0.786029 c 11 10 681 737 bf 0.0906863 0.594608 0.78125 c 11 10 692 737 bf 12 10 703 737 bf 0.122549 0.702941 0.786029 c 11 10 715 737 bf 11 10 726 737 bf 0.29326 0.785539 0.529779 c 12
 10 737 737 bf 0.4 0.807843 0.352941 c 11 10 749 737 bf 11 10 760 737 bf 0.29326 0.785539 0.529779 c 12 10 771 737 bf 0.4 0.807843 0.352941 c 11 10 783 737 bf 0.549755 0.839706 0.244608 c 12 10 794 737 bf 11 10 806 737 bf 11 10 817 737 bf 0.815686
 0.380392 0.0509804 c 12 10 828 737 bf 0.777451 0.791422 0.0796569 c 11 10 840 737 bf 0.549755 0.839706 0.244608 c 11 10 851 737 bf 0.68799 0.869118 0.144608 c 12 10 862 737 bf 0.4 0.807843 0.352941 c 11 10 874 737 bf 0.68799 0.869118 0.144608 c 11
 10 885 737 bf 12 10 896 737 bf 0.777451 0.791422 0.0796569 c 11 10 908 737 bf 0.796569 0.585907 0.0653186 c 11 10 919 737 bf 0.68799 0.869118 0.144608 c 12 10 930 737 bf 0.796569 0.585907 0.0653186 c 11 10 942 737 bf 11 10 953 737 bf 0.68799
 0.869118 0.144608 c 12 10 964 737 bf 0.777451 0.791422 0.0796569 c 11 10 976 737 bf 0.802451 0.261275 0.0436275 c 11 10 987 737 bf 0.788113 0.13223 0.0356618 c 12 10 998 737 bf 0.777451 0.791422 0.0796569 c 11 10 1010 737 bf 12 10 1021 737 bf
 0.796569 0.585907 0.0653186 c 11 10 1033 737 bf 0.777451 0.791422 0.0796569 c 11 10 1044 737 bf 0.68799 0.869118 0.144608 c 12 10 1055 737 bf 0.796569 0.585907 0.0653186 c 11 10 1067 737 bf 11 10 1078 737 bf 0.777451 0.791422 0.0796569 c 12 10 1089
 737 bf 0.796569 0.585907 0.0653186 c 11 10 1101 737 bf 0.815686 0.380392 0.0509804 c 11 10 1112 737 bf 12 10 1123 737 bf 0.777451 0.791422 0.0796569 c 11 10 1135 737 bf 0.68799 0.869118 0.144608 c 11 10 1146 737 bf 0.714951 0.0509804 0.0269608 c 12
 10 1157 737 bf 0.777451 0.791422 0.0796569 c 11 10 1169 737 bf 0.796569 0.585907 0.0653186 c 11 10 1180 737 bf 12 10 1191 737 bf 11 10 1203 737 bf 0.815686 0.380392 0.0509804 c 11 10 1214 737 bf 0.777451 0.791422 0.0796569 c 12 10 1225 737 bf
 0.549755 0.839706 0.244608 c 11 10 1237 737 bf 0.796569 0.585907 0.0653186 c 12 10 1248 737 bf 0.815686 0.380392 0.0509804 c 11 10 1260 737 bf 0.549755 0.839706 0.244608 c 11 10 1271 737 bf 0.68799 0.869118 0.144608 c 12 10 1282 737 bf 0.815686
 0.380392 0.0509804 c 11 10 1294 737 bf 0.777451 0.791422 0.0796569 c 11 10 1305 737 bf 0.802451 0.261275 0.0436275 c 12 10 1316 737 bf 0.68799 0.869118 0.144608 c 11 10 1328 737 bf 11 10 1339 737 bf 0.796569 0.585907 0.0653186 c 12 10 1350 737 bf
 0.68799 0.869118 0.144608 c 11 10 1362 737 bf 11 10 1373 737 bf 12 10 1384 737 bf 0.777451 0.791422 0.0796569 c 11 10 1396 737 bf 0.549755 0.839706 0.244608 c 11 10 1407 737 bf 0.68799 0.869118 0.144608 c 12 10 1418 737 bf 0.29326 0.785539 0.529779
 c 11 10 1430 737 bf 11 10 1441 737 bf 12 10 1452 737 bf 11 10 1464 737 bf 0.122549 0.702941 0.786029 c 12 10 1475 737 bf 0.18652 0.763235 0.706618 c 11 10 1487 737 bf 0.122549 0.702941 0.786029 c 11 10 1498 737 bf 12 10 1509 737 bf 11 10 1521 737 bf
 0.0588235 0.486275 0.776471 c 11 10 1532 737 bf 0.0906863 0.594608 0.78125 c 12 10 1543 737 bf 0.0588235 0.486275 0.776471 c 11 10 1555 737 bf 11 10 1566 737 bf 12 10 1577 737 bf 11 10 1589 737 bf 11 10 1600 737 bf 0.0281863 0.253431 0.604902 c 12
 10 1611 737 bf 0.0588235 0.486275 0.776471 c 11 10 1623 737 bf 0.0428922 0.365196 0.687255 c 11 10 1634 737 bf 0.0158128 0.151803 0.524225 c 12 10 1645 737 bf 11 10 1657 737 bf 0.00759013 0.0728653 0.45351 c 11 10 1668 737 bf 0.0158128 0.151803
 0.524225 c 12 10 1679 737 bf 0.00759013 0.0728653 0.45351 c 12 10 1702 737 bf 0.0158128 0.151803 0.524225 c 11 10 1714 737 bf 0.00759013 0.0728653 0.45351 c 11 10 1725 737 bf 12 10 1736 737 bf 11 10 1748 737 bf 11 10 1759 737 bf 12 10 1770 737 bf 11
 10 1782 737 bf 11 10 1827 737 bf 12 10 1872 737 bf 11 10 590 747 bf 12 10 601 747 bf 11 10 613 747 bf 0.0281863 0.253431 0.604902 c 11 10 624 747 bf 0.0588235 0.486275 0.776471 c 12 10 635 747 bf 0.0281863 0.253431 0.604902 c 11 10 647 747 bf
 0.0588235 0.486275 0.776471 c 11 10 658 747 bf 12 10 669 747 bf 0.18652 0.763235 0.706618 c 11 10 681 747 bf 0.29326 0.785539 0.529779 c 11 10 692 747 bf 0.0906863 0.594608 0.78125 c 12 10 703 747 bf 0.4 0.807843 0.352941 c 11 10 715 747 bf 0.29326
 0.785539 0.529779 c 11 10 726 747 bf 0.122549 0.702941 0.786029 c 12 10 737 747 bf 0.4 0.807843 0.352941 c 11 10 749 747 bf 11 10 760 747 bf 12 10 771 747 bf 0.549755 0.839706 0.244608 c 11 10 783 747 bf 0.777451 0.791422 0.0796569 c 12 10 794 747
 bf 0.68799 0.869118 0.144608 c 11 10 806 747 bf 0.4 0.807843 0.352941 c 11 10 817 747 bf 0.68799 0.869118 0.144608 c 12 10 828 747 bf 0.4 0.807843 0.352941 c 11 10 840 747 bf 0.68799 0.869118 0.144608 c 11 10 851 747 bf 12 10 862 747 bf 0.549755
 0.839706 0.244608 c 11 10 874 747 bf 0.68799 0.869118 0.144608 c 11 10 885 747 bf 0.549755 0.839706 0.244608 c 12 10 896 747 bf 0.68799 0.869118 0.144608 c 11 10 908 747 bf 0.549755 0.839706 0.244608 c 11 10 919 747 bf 0.777451 0.791422 0.0796569 c
 12 10 930 747 bf 0.815686 0.380392 0.0509804 c 11 10 942 747 bf 0.796569 0.585907 0.0653186 c 11 10 953 747 bf 0.777451 0.791422 0.0796569 c 12 10 964 747 bf 0.796569 0.585907 0.0653186 c 11 10 976 747 bf 11 10 987 747 bf 0.68799 0.869118 0.144608 c
 12 10 998 747 bf 0.796569 0.585907 0.0653186 c 11 10 1010 747 bf 0.68799 0.869118 0.144608 c 12 10 1021 747 bf 0.777451 0.791422 0.0796569 c 11 10 1033 747 bf 0.796569 0.585907 0.0653186 c 11 10 1044 747 bf 0.815686 0.380392 0.0509804 c 12 10 1055
 747 bf 0.796569 0.585907 0.0653186 c 11 10 1067 747 bf 11 10 1078 747 bf 12 10 1089 747 bf 0.68799 0.869118 0.144608 c 11 10 1101 747 bf 11 10 1112 747 bf 0.802451 0.261275 0.0436275 c 12 10 1123 747 bf 0.68799 0.869118 0.144608 c 11 10 1135 747 bf
 0.796569 0.585907 0.0653186 c 11 10 1146 747 bf 0.802451 0.261275 0.0436275 c 12 10 1157 747 bf 0.796569 0.585907 0.0653186 c 11 10 1169 747 bf 0.815686 0.380392 0.0509804 c 11 10 1180 747 bf 0.68799 0.869118 0.144608 c 12 10 1191 747 bf 0.777451
 0.791422 0.0796569 c 11 10 1203 747 bf 0.796569 0.585907 0.0653186 c 11 10 1214 747 bf 0.815686 0.380392 0.0509804 c 12 10 1225 747 bf 0.796569 0.585907 0.0653186 c 11 10 1237 747 bf 0.777451 0.791422 0.0796569 c 12 10 1248 747 bf 0.815686 0.380392
 0.0509804 c 11 10 1260 747 bf 0.796569 0.585907 0.0653186 c 11 10 1271 747 bf 0.815686 0.380392 0.0509804 c 12 10 1282 747 bf 0.68799 0.869118 0.144608 c 11 10 1294 747 bf 0.815686 0.380392 0.0509804 c 11 10 1305 747 bf 0.68799 0.869118 0.144608 c
 12 10 1316 747 bf 0.815686 0.380392 0.0509804 c 11 10 1328 747 bf 0.777451 0.791422 0.0796569 c 11 10 1339 747 bf 0.796569 0.585907 0.0653186 c 12 10 1350 747 bf 0.29326 0.785539 0.529779 c 11 10 1362 747 bf 0.68799 0.869118 0.144608 c 11 10 1373
 747 bf 12 10 1384 747 bf 11 10 1396 747 bf 0.29326 0.785539 0.529779 c 11 10 1407 747 bf 0.549755 0.839706 0.244608 c 12 10 1418 747 bf 11 10 1430 747 bf 0.796569 0.585907 0.0653186 c 11 10 1441 747 bf 0.549755 0.839706 0.244608 c 12 10 1452 747 bf
 0.4 0.807843 0.352941 c 11 10 1464 747 bf 0.122549 0.702941 0.786029 c 12 10 1475 747 bf 0.0906863 0.594608 0.78125 c 11 10 1487 747 bf 11 10 1498 747 bf 0.18652 0.763235 0.706618 c 12 10 1509 747 bf 11 10 1521 747 bf 0.0906863 0.594608 0.78125 c 11
 10 1532 747 bf 0.0588235 0.486275 0.776471 c 12 10 1543 747 bf 0.0428922 0.365196 0.687255 c 11 10 1555 747 bf 0.0588235 0.486275 0.776471 c 11 10 1566 747 bf 12 10 1577 747 bf 11 10 1589 747 bf 0.0428922 0.365196 0.687255 c 11 10 1600 747 bf
 0.0281863 0.253431 0.604902 c 12 10 1611 747 bf 11 10 1623 747 bf 11 10 1634 747 bf 0.0158128 0.151803 0.524225 c 12 10 1645 747 bf 11 10 1657 747 bf 11 10 1668 747 bf 12 10 1679 747 bf 0.00759013 0.0728653 0.45351 c 11 10 1691 747 bf 0.0158128
 0.151803 0.524225 c 12 10 1702 747 bf 0.00759013 0.0728653 0.45351 c 11 10 1714 747 bf 12 10 1736 747 bf 11 10 1748 747 bf 11 10 1759 747 bf 12 10 1770 747 bf 12 10 1804 747 bf 11 10 1861 747 bf 11 9 590 757 bf 0.0158128 0.151803 0.524225 c 12 9 601
 757 bf 11 9 613 757 bf 11 9 624 757 bf 0.0588235 0.486275 0.776471 c 12 9 635 757 bf 0.0428922 0.365196 0.687255 c 11 9 647 757 bf 0.0906863 0.594608 0.78125 c 11 9 658 757 bf 0.122549 0.702941 0.786029 c 12 9 669 757 bf 11 9 681 757 bf 0.0588235
 0.486275 0.776471 c 11 9 692 757 bf 0.18652 0.763235 0.706618 c 12 9 703 757 bf 0.4 0.807843 0.352941 c 11 9 715 757 bf 0.29326 0.785539 0.529779 c 11 9 726 757 bf 0.18652 0.763235 0.706618 c 12 9 737 757 bf 11 9 749 757 bf 0.68799 0.869118 0.144608
 c 11 9 760 757 bf 0.29326 0.785539 0.529779 c 12 9 771 757 bf 0.4 0.807843 0.352941 c 11 9 783 757 bf 0.68799 0.869118 0.144608 c 12 9 794 757 bf 0.4 0.807843 0.352941 c 11 9 806 757 bf 0.29326 0.785539 0.529779 c 11 9 817 757 bf 0.4 0.807843
 0.352941 c 12 9 828 757 bf 0.68799 0.869118 0.144608 c 11 9 840 757 bf 0.777451 0.791422 0.0796569 c 11 9 851 757 bf 0.68799 0.869118 0.144608 c 12 9 862 757 bf 0.549755 0.839706 0.244608 c 11 9 874 757 bf 0.777451 0.791422 0.0796569 c 11 9 885 757
 bf 0.549755 0.839706 0.244608 c 12 9 896 757 bf 0.68799 0.869118 0.144608 c 11 9 908 757 bf 0.815686 0.380392 0.0509804 c 11 9 919 757 bf 0.549755 0.839706 0.244608 c 12 9 930 757 bf 0.68799 0.869118 0.144608 c 11 9 942 757 bf 0.777451 0.791422
 0.0796569 c 11 9 953 757 bf 0.68799 0.869118 0.144608 c 12 9 964 757 bf 0.796569 0.585907 0.0653186 c 11 9 976 757 bf 11 9 987 757 bf 0.777451 0.791422 0.0796569 c 12 9 998 757 bf 0.4 0.807843 0.352941 c 11 9 1010 757 bf 0.777451 0.791422 0.0796569
 c 12 9 1021 757 bf 11 9 1033 757 bf 0.549755 0.839706 0.244608 c 11 9 1044 757 bf 0.815686 0.380392 0.0509804 c 12 9 1055 757 bf 0.788113 0.13223 0.0356618 c 11 9 1067 757 bf 11 9 1078 757 bf 0.777451 0.791422 0.0796569 c 12 9 1089 757 bf 0.549755
 0.839706 0.244608 c 11 9 1101 757 bf 0.68799 0.869118 0.144608 c 11 9 1112 757 bf 12 9 1123 757 bf 0.796569 0.585907 0.0653186 c 11 9 1135 757 bf 0.68799 0.869118 0.144608 c 11 9 1146 757 bf 12 9 1157 757 bf 0.815686 0.380392 0.0509804 c 11 9 1169
 757 bf 0.777451 0.791422 0.0796569 c 11 9 1180 757 bf 0.796569 0.585907 0.0653186 c 12 9 1191 757 bf 0.68799 0.869118 0.144608 c 11 9 1203 757 bf 0.788113 0.13223 0.0356618 c 11 9 1214 757 bf 0.777451 0.791422 0.0796569 c 12 9 1225 757 bf 0.815686
 0.380392 0.0509804 c 11 9 1237 757 bf 0.796569 0.585907 0.0653186 c 12 9 1248 757 bf 0.802451 0.261275 0.0436275 c 11 9 1260 757 bf 0.796569 0.585907 0.0653186 c 11 9 1271 757 bf 0.788113 0.13223 0.0356618 c 12 9 1282 757 bf 0.4 0.807843 0.352941 c
 11 9 1294 757 bf 0.815686 0.380392 0.0509804 c 11 9 1305 757 bf 0.802451 0.261275 0.0436275 c 12 9 1316 757 bf 0.777451 0.791422 0.0796569 c 11 9 1328 757 bf 0.796569 0.585907 0.0653186 c 11 9 1339 757 bf 0.68799 0.869118 0.144608 c 12 9 1350 757 bf
 0.815686 0.380392 0.0509804 c 11 9 1362 757 bf 0.68799 0.869118 0.144608 c 11 9 1373 757 bf 0.777451 0.791422 0.0796569 c 12 9 1384 757 bf 0.549755 0.839706 0.244608 c 11 9 1396 757 bf 0.796569 0.585907 0.0653186 c 11 9 1407 757 bf 0.777451 0.791422
 0.0796569 c 12 9 1418 757 bf 0.549755 0.839706 0.244608 c 11 9 1430 757 bf 0.68799 0.869118 0.144608 c 11 9 1441 757 bf 0.549755 0.839706 0.244608 c 12 9 1452 757 bf 0.4 0.807843 0.352941 c 11 9 1464 757 bf 0.18652 0.763235 0.706618 c 12 9 1475 757
 bf 0.29326 0.785539 0.529779 c 11 9 1487 757 bf 0.122549 0.702941 0.786029 c 11 9 1498 757 bf 0.29326 0.785539 0.529779 c 12 9 1509 757 bf 0.122549 0.702941 0.786029 c 11 9 1521 757 bf 0.0906863 0.594608 0.78125 c 11 9 1532 757 bf 12 9 1543 757 bf
 0.122549 0.702941 0.786029 c 11 9 1555 757 bf 0.0428922 0.365196 0.687255 c 11 9 1566 757 bf 0.0588235 0.486275 0.776471 c 12 9 1577 757 bf 11 9 1589 757 bf 0.0428922 0.365196 0.687255 c 11 9 1600 757 bf 0.0588235 0.486275 0.776471 c 12 9 1611 757
 bf 0.0281863 0.253431 0.604902 c 11 9 1623 757 bf 0.0428922 0.365196 0.687255 c 11 9 1634 757 bf 0.0281863 0.253431 0.604902 c 12 9 1645 757 bf 0.0158128 0.151803 0.524225 c 11 9 1657 757 bf 0.00759013 0.0728653 0.45351 c 11 9 1668 757 bf 12 9 1679
 757 bf 11 9 1691 757 bf 12 9 1702 757 bf 11 9 1714 757 bf 11 9 1725 757 bf 12 9 1736 757 bf 11 9 1759 757 bf 12 9 1770 757 bf 11 9 1782 757 bf 11 9 1793 757 bf 11 9 1827 757 bf 12 9 1838 757 bf 12 10 601 766 bf 0.0158128 0.151803 0.524225 c 11 10
 613 766 bf 0.0281863 0.253431 0.604902 c 11 10 624 766 bf 0.0428922 0.365196 0.687255 c 12 10 635 766 bf 0.0906863 0.594608 0.78125 c 11 10 647 766 bf 0.0588235 0.486275 0.776471 c 11 10 658 766 bf 12 10 669 766 bf 0.122549 0.702941 0.786029 c 11 10
 681 766 bf 0.18652 0.763235 0.706618 c 11 10 692 766 bf 0.29326 0.785539 0.529779 c 12 10 703 766 bf 11 10 715 766 bf 11 10 726 766 bf 0.4 0.807843 0.352941 c 12 10 737 766 bf 0.29326 0.785539 0.529779 c 11 10 749 766 bf 0.549755 0.839706 0.244608 c
 11 10 760 766 bf 12 10 771 766 bf 0.4 0.807843 0.352941 c 11 10 783 766 bf 0.18652 0.763235 0.706618 c 12 10 794 766 bf 0.549755 0.839706 0.244608 c 11 10 806 766 bf 0.777451 0.791422 0.0796569 c 11 10 817 766 bf 0.4 0.807843 0.352941 c 12 10 828
 766 bf 0.68799 0.869118 0.144608 c 11 10 840 766 bf 0.788113 0.13223 0.0356618 c 11 10 851 766 bf 0.549755 0.839706 0.244608 c 12 10 862 766 bf 0.4 0.807843 0.352941 c 11 10 874 766 bf 0.777451 0.791422 0.0796569 c 11 10 885 766 bf 0.68799 0.869118
 0.144608 c 12 10 896 766 bf 0.549755 0.839706 0.244608 c 11 10 908 766 bf 0.796569 0.585907 0.0653186 c 11 10 919 766 bf 0.777451 0.791422 0.0796569 c 12 10 930 766 bf 0.815686 0.380392 0.0509804 c 11 10 942 766 bf 0.549755 0.839706 0.244608 c 11 10
 953 766 bf 0.802451 0.261275 0.0436275 c 12 10 964 766 bf 0.788113 0.13223 0.0356618 c 11 10 976 766 bf 0.815686 0.380392 0.0509804 c 11 10 987 766 bf 0.796569 0.585907 0.0653186 c 12 10 998 766 bf 0.777451 0.791422 0.0796569 c 11 10 1010 766 bf 12
 10 1021 766 bf 0.68799 0.869118 0.144608 c 11 10 1033 766 bf 0.815686 0.380392 0.0509804 c 11 10 1044 766 bf 0.714951 0.0509804 0.0269608 c 12 10 1055 766 bf 0.796569 0.585907 0.0653186 c 11 10 1067 766 bf 0.815686 0.380392 0.0509804 c 11 10 1078
 766 bf 0.796569 0.585907 0.0653186 c 12 10 1089 766 bf 0.777451 0.791422 0.0796569 c 11 10 1101 766 bf 0.815686 0.380392 0.0509804 c 11 10 1112 766 bf 0.777451 0.791422 0.0796569 c 12 10 1123 766 bf 11 10 1135 766 bf 0.802451 0.261275 0.0436275 c 11
 10 1146 766 bf 0.815686 0.380392 0.0509804 c 12 10 1157 766 bf 0.802451 0.261275 0.0436275 c 11 10 1169 766 bf 11 10 1180 766 bf 0.796569 0.585907 0.0653186 c 12 10 1191 766 bf 11 10 1203 766 bf 0.815686 0.380392 0.0509804 c 11 10 1214 766 bf
 0.796569 0.585907 0.0653186 c 12 10 1225 766 bf 11 10 1237 766 bf 0.802451 0.261275 0.0436275 c 12 10 1248 766 bf 0.777451 0.791422 0.0796569 c 11 10 1260 766 bf 0.815686 0.380392 0.0509804 c 11 10 1271 766 bf 0.802451 0.261275 0.0436275 c 12 10
 1282 766 bf 0.796569 0.585907 0.0653186 c 11 10 1294 766 bf 0.68799 0.869118 0.144608 c 11 10 1305 766 bf 0.796569 0.585907 0.0653186 c 12 10 1316 766 bf 0.777451 0.791422 0.0796569 c 11 10 1328 766 bf 0.815686 0.380392 0.0509804 c 11 10 1339 766 bf
 0.802451 0.261275 0.0436275 c 12 10 1350 766 bf 0.796569 0.585907 0.0653186 c 11 10 1362 766 bf 0.815686 0.380392 0.0509804 c 11 10 1373 766 bf 0.68799 0.869118 0.144608 c 12 10 1384 766 bf 11 10 1396 766 bf 0.777451 0.791422 0.0796569 c 11 10 1407
 766 bf 0.4 0.807843 0.352941 c 12 10 1418 766 bf 0.68799 0.869118 0.144608 c 11 10 1430 766 bf 0.549755 0.839706 0.244608 c 11 10 1441 766 bf 0.777451 0.791422 0.0796569 c 12 10 1452 766 bf 0.29326 0.785539 0.529779 c 11 10 1464 766 bf 0.122549
 0.702941 0.786029 c 12 10 1475 766 bf 0.29326 0.785539 0.529779 c 11 10 1487 766 bf 0.18652 0.763235 0.706618 c 11 10 1498 766 bf 12 10 1509 766 bf 11 10 1521 766 bf 0.122549 0.702941 0.786029 c 11 10 1532 766 bf 0.0588235 0.486275 0.776471 c 12 10
 1543 766 bf 0.0906863 0.594608 0.78125 c 11 10 1555 766 bf 0.0588235 0.486275 0.776471 c 11 10 1566 766 bf 12 10 1577 766 bf 0.0906863 0.594608 0.78125 c 11 10 1589 766 bf 0.0588235 0.486275 0.776471 c 11 10 1600 766 bf 0.0281863 0.253431 0.604902 c
 12 10 1611 766 bf 0.0428922 0.365196 0.687255 c 11 10 1623 766 bf 0.0281863 0.253431 0.604902 c 11 10 1634 766 bf 0.0158128 0.151803 0.524225 c 12 10 1645 766 bf 0.00759013 0.0728653 0.45351 c 11 10 1657 766 bf 0.0158128 0.151803 0.524225 c 11 10
 1668 766 bf 12 10 1679 766 bf 0.00759013 0.0728653 0.45351 c 11 10 1691 766 bf 12 10 1702 766 bf 11 10 1714 766 bf 11 10 1725 766 bf 12 10 1736 766 bf 11 10 1748 766 bf 11 10 1793 766 bf 11 10 1816 766 bf 12 10 1838 766 bf 11 10 579 776 bf 11 10 590
 776 bf 0.0158128 0.151803 0.524225 c 12 10 601 776 bf 0.0281863 0.253431 0.604902 c 11 10 613 776 bf 11 10 624 776 bf 0.0588235 0.486275 0.776471 c 12 10 635 776 bf 11 10 647 776 bf 0.0906863 0.594608 0.78125 c 11 10 658 776 bf 0.122549 0.702941
 0.786029 c 12 10 669 776 bf 11 10 681 776 bf 11 10 692 776 bf 0.29326 0.785539 0.529779 c 12 10 703 776 bf 0.4 0.807843 0.352941 c 11 10 715 776 bf 0.29326 0.785539 0.529779 c 11 10 726 776 bf 0.122549 0.702941 0.786029 c 12 10 737 776 bf 0.4
 0.807843 0.352941 c 11 10 749 776 bf 0.29326 0.785539 0.529779 c 11 10 760 776 bf 0.4 0.807843 0.352941 c 12 10 771 776 bf 0.549755 0.839706 0.244608 c 11 10 783 776 bf 0.29326 0.785539 0.529779 c 12 10 794 776 bf 0.549755 0.839706 0.244608 c 11 10
 806 776 bf 11 10 817 776 bf 0.796569 0.585907 0.0653186 c 12 10 828 776 bf 0.4 0.807843 0.352941 c 11 10 840 776 bf 0.549755 0.839706 0.244608 c 11 10 851 776 bf 12 10 862 776 bf 0.796569 0.585907 0.0653186 c 11 10 874 776 bf 0.802451 0.261275
 0.0436275 c 11 10 885 776 bf 0.796569 0.585907 0.0653186 c 12 10 896 776 bf 0.68799 0.869118 0.144608 c 11 10 908 776 bf 11 10 919 776 bf 0.777451 0.791422 0.0796569 c 12 10 930 776 bf 0.802451 0.261275 0.0436275 c 11 10 942 776 bf 0.777451 0.791422
 0.0796569 c 11 10 953 776 bf 0.549755 0.839706 0.244608 c 12 10 964 776 bf 0.802451 0.261275 0.0436275 c 11 10 976 776 bf 0.815686 0.380392 0.0509804 c 11 10 987 776 bf 0.777451 0.791422 0.0796569 c 12 10 998 776 bf 0.796569 0.585907 0.0653186 c 11
 10 1010 776 bf 0.802451 0.261275 0.0436275 c 12 10 1021 776 bf 0.796569 0.585907 0.0653186 c 11 10 1033 776 bf 0.549755 0.839706 0.244608 c 11 10 1044 776 bf 0.777451 0.791422 0.0796569 c 12 10 1055 776 bf 0.788113 0.13223 0.0356618 c 11 10 1067 776
 bf 0.796569 0.585907 0.0653186 c 11 10 1078 776 bf 0.815686 0.380392 0.0509804 c 12 10 1089 776 bf 0.802451 0.261275 0.0436275 c 11 10 1101 776 bf 0.714951 0.0509804 0.0269608 c 11 10 1112 776 bf 0.796569 0.585907 0.0653186 c 12 10 1123 776 bf 11 10
 1135 776 bf 0.815686 0.380392 0.0509804 c 11 10 1146 776 bf 0.796569 0.585907 0.0653186 c 12 10 1157 776 bf 0.777451 0.791422 0.0796569 c 11 10 1169 776 bf 0.802451 0.261275 0.0436275 c 11 10 1180 776 bf 0.788113 0.13223 0.0356618 c 12 10 1191 776
 bf 0.802451 0.261275 0.0436275 c 11 10 1203 776 bf 0.815686 0.380392 0.0509804 c 11 10 1214 776 bf 12 10 1225 776 bf 0.777451 0.791422 0.0796569 c 11 10 1237 776 bf 0.796569 0.585907 0.0653186 c 12 10 1248 776 bf 0.777451 0.791422 0.0796569 c 11 10
 1260 776 bf 0.4 0.807843 0.352941 c 11 10 1271 776 bf 0.788113 0.13223 0.0356618 c 12 10 1282 776 bf 0.815686 0.380392 0.0509804 c 11 10 1294 776 bf 0.796569 0.585907 0.0653186 c 11 10 1305 776 bf 0.777451 0.791422 0.0796569 c 12 10 1316 776 bf
 0.68799 0.869118 0.144608 c 11 10 1328 776 bf 0.815686 0.380392 0.0509804 c 11 10 1339 776 bf 0.777451 0.791422 0.0796569 c 12 10 1350 776 bf 0.815686 0.380392 0.0509804 c 11 10 1362 776 bf 11 10 1373 776 bf 0.777451 0.791422 0.0796569 c 12 10 1384
 776 bf 11 10 1396 776 bf 11 10 1407 776 bf 0.549755 0.839706 0.244608 c 12 10 1418 776 bf 0.4 0.807843 0.352941 c 11 10 1430 776 bf 0.796569 0.585907 0.0653186 c 11 10 1441 776 bf 0.4 0.807843 0.352941 c 12 10 1452 776 bf 0.68799 0.869118 0.144608 c
 11 10 1464 776 bf 0.18652 0.763235 0.706618 c 12 10 1475 776 bf 0.29326 0.785539 0.529779 c 11 10 1487 776 bf 0.18652 0.763235 0.706618 c 11 10 1498 776 bf 0.29326 0.785539 0.529779 c 12 10 1509 776 bf 0.122549 0.702941 0.786029 c 11 10 1521 776 bf
 0.0588235 0.486275 0.776471 c 11 10 1532 776 bf 0.122549 0.702941 0.786029 c 12 10 1543 776 bf 0.18652 0.763235 0.706618 c 11 10 1555 776 bf 0.0588235 0.486275 0.776471 c 11 10 1566 776 bf 0.0428922 0.365196 0.687255 c 12 10 1577 776 bf 0.0588235
 0.486275 0.776471 c 11 10 1589 776 bf 11 10 1600 776 bf 12 10 1611 776 bf 0.0281863 0.253431 0.604902 c 11 10 1623 776 bf 0.0158128 0.151803 0.524225 c 11 10 1634 776 bf 12 10 1645 776 bf 0.0281863 0.253431 0.604902 c 11 10 1657 776 bf 0.0158128
 0.151803 0.524225 c 11 10 1668 776 bf 0.00759013 0.0728653 0.45351 c 12 10 1679 776 bf 11 10 1691 776 bf 12 10 1702 776 bf 11 10 1714 776 bf 11 10 1725 776 bf 12 10 1736 776 bf 11 10 1748 776 bf 11 10 1759 776 bf 12 10 1804 776 bf 11 10 1827 776 bf
 11 10 590 786 bf 12 10 601 786 bf 0.0158128 0.151803 0.524225 c 11 10 613 786 bf 0.0281863 0.253431 0.604902 c 11 10 624 786 bf 12 10 635 786 bf 0.0588235 0.486275 0.776471 c 11 10 647 786 bf 0.122549 0.702941 0.786029 c 11 10 658 786 bf 0.0906863
 0.594608 0.78125 c 12 10 669 786 bf 11 10 681 786 bf 0.18652 0.763235 0.706618 c 11 10 692 786 bf 0.4 0.807843 0.352941 c 12 10 703 786 bf 11 10 715 786 bf 11 10 726 786 bf 12 10 737 786 bf 0.549755 0.839706 0.244608 c 11 10 749 786 bf 11 10 760 786
 bf 12 10 771 786 bf 0.29326 0.785539 0.529779 c 11 10 783 786 bf 0.549755 0.839706 0.244608 c 12 10 794 786 bf 0.29326 0.785539 0.529779 c 11 10 806 786 bf 0.549755 0.839706 0.244608 c 11 10 817 786 bf 12 10 828 786 bf 0.4 0.807843 0.352941 c 11 10
 840 786 bf 0.796569 0.585907 0.0653186 c 11 10 851 786 bf 0.815686 0.380392 0.0509804 c 12 10 862 786 bf 0.777451 0.791422 0.0796569 c 11 10 874 786 bf 0.796569 0.585907 0.0653186 c 11 10 885 786 bf 0.549755 0.839706 0.244608 c 12 10 896 786 bf
 0.777451 0.791422 0.0796569 c 11 10 908 786 bf 0.68799 0.869118 0.144608 c 11 10 919 786 bf 0.796569 0.585907 0.0653186 c 12 10 930 786 bf 11 10 942 786 bf 11 10 953 786 bf 12 10 964 786 bf 0.802451 0.261275 0.0436275 c 11 10 976 786 bf 0.777451
 0.791422 0.0796569 c 11 10 987 786 bf 0.796569 0.585907 0.0653186 c 12 10 998 786 bf 0.815686 0.380392 0.0509804 c 11 10 1010 786 bf 0.796569 0.585907 0.0653186 c 12 10 1021 786 bf 0.788113 0.13223 0.0356618 c 11 10 1033 786 bf 0.796569 0.585907
 0.0653186 c 11 10 1044 786 bf 0.788113 0.13223 0.0356618 c 12 10 1055 786 bf 0.796569 0.585907 0.0653186 c 11 10 1067 786 bf 0.815686 0.380392 0.0509804 c 11 10 1078 786 bf 0.549755 0.839706 0.244608 c 12 10 1089 786 bf 0.68799 0.869118 0.144608 c
 11 10 1101 786 bf 0.549755 0.839706 0.244608 c 11 10 1112 786 bf 0.802451 0.261275 0.0436275 c 12 10 1123 786 bf 0.714951 0.0509804 0.0269608 c 11 10 1135 786 bf 0.788113 0.13223 0.0356618 c 11 10 1146 786 bf 0.777451 0.791422 0.0796569 c 12 10 1157
 786 bf 0.802451 0.261275 0.0436275 c 11 10 1169 786 bf 0.815686 0.380392 0.0509804 c 11 10 1180 786 bf 0.802451 0.261275 0.0436275 c 12 10 1191 786 bf 0.68799 0.869118 0.144608 c 11 10 1203 786 bf 0.815686 0.380392 0.0509804 c 11 10 1214 786 bf
 0.802451 0.261275 0.0436275 c 12 10 1225 786 bf 0.549755 0.839706 0.244608 c 11 10 1237 786 bf 0.796569 0.585907 0.0653186 c 12 10 1248 786 bf 0.777451 0.791422 0.0796569 c 11 10 1260 786 bf 11 10 1271 786 bf 0.796569 0.585907 0.0653186 c 12 10 1282
 786 bf 0.549755 0.839706 0.244608 c 11 10 1294 786 bf 0.796569 0.585907 0.0653186 c 11 10 1305 786 bf 0.815686 0.380392 0.0509804 c 12 10 1316 786 bf 0.796569 0.585907 0.0653186 c 11 10 1328 786 bf 0.777451 0.791422 0.0796569 c 11 10 1339 786 bf 12
 10 1350 786 bf 0.815686 0.380392 0.0509804 c 11 10 1362 786 bf 0.802451 0.261275 0.0436275 c 11 10 1373 786 bf 0.796569 0.585907 0.0653186 c 12 10 1384 786 bf 0.549755 0.839706 0.244608 c 11 10 1396 786 bf 0.815686 0.380392 0.0509804 c 11 10 1407
 786 bf 0.802451 0.261275 0.0436275 c 12 10 1418 786 bf 0.4 0.807843 0.352941 c 11 10 1430 786 bf 0.68799 0.869118 0.144608 c 11 10 1441 786 bf 0.29326 0.785539 0.529779 c 12 10 1452 786 bf 0.4 0.807843 0.352941 c 11 10 1464 786 bf 0.29326 0.785539
 0.529779 c 12 10 1475 786 bf 0.4 0.807843 0.352941 c 11 10 1487 786 bf 0.18652 0.763235 0.706618 c 11 10 1498 786 bf 0.29326 0.785539 0.529779 c 12 10 1509 786 bf 0.0906863 0.594608 0.78125 c 11 10 1521 786 bf 11 10 1532 786 bf 12 10 1543 786 bf 11
 10 1555 786 bf 0.0588235 0.486275 0.776471 c 11 10 1566 786 bf 12 10 1577 786 bf 0.0428922 0.365196 0.687255 c 11 10 1589 786 bf 0.0588235 0.486275 0.776471 c 11 10 1600 786 bf 0.0281863 0.253431 0.604902 c 12 10 1611 786 bf 11 10 1623 786 bf
 0.0158128 0.151803 0.524225 c 11 10 1634 786 bf 12 10 1645 786 bf 0.00759013 0.0728653 0.45351 c 11 10 1657 786 bf 11 10 1668 786 bf 12 10 1679 786 bf 11 10 1691 786 bf 12 10 1702 786 bf 11 10 1714 786 bf 11 10 1725 786 bf 12 10 1736 786 bf 11 10
 1759 786 bf 11 10 1793 786 bf 12 10 1804 786 bf 11 9 579 796 bf 11 9 590 796 bf 0.0158128 0.151803 0.524225 c 12 9 601 796 bf 11 9 613 796 bf 0.0281863 0.253431 0.604902 c 11 9 624 796 bf 0.0428922 0.365196 0.687255 c 12 9 635 796 bf 0.0906863
 0.594608 0.78125 c 11 9 647 796 bf 0.0588235 0.486275 0.776471 c 11 9 658 796 bf 0.122549 0.702941 0.786029 c 12 9 669 796 bf 0.0906863 0.594608 0.78125 c 11 9 681 796 bf 0.122549 0.702941 0.786029 c 11 9 692 796 bf 12 9 703 796 bf 0.29326 0.785539
 0.529779 c 11 9 715 796 bf 0.4 0.807843 0.352941 c 11 9 726 796 bf 12 9 737 796 bf 11 9 749 796 bf 11 9 760 796 bf 12 9 771 796 bf 0.29326 0.785539 0.529779 c 11 9 783 796 bf 0.777451 0.791422 0.0796569 c 12 9 794 796 bf 0.4 0.807843 0.352941 c 11 9
 806 796 bf 0.815686 0.380392 0.0509804 c 11 9 817 796 bf 0.68799 0.869118 0.144608 c 12 9 828 796 bf 0.796569 0.585907 0.0653186 c 11 9 840 796 bf 11 9 851 796 bf 0.68799 0.869118 0.144608 c 12 9 862 796 bf 0.777451 0.791422 0.0796569 c 11 9 874 796
 bf 0.802451 0.261275 0.0436275 c 11 9 885 796 bf 0.777451 0.791422 0.0796569 c 12 9 896 796 bf 0.4 0.807843 0.352941 c 11 9 908 796 bf 0.796569 0.585907 0.0653186 c 11 9 919 796 bf 12 9 930 796 bf 0.815686 0.380392 0.0509804 c 11 9 942 796 bf
 0.796569 0.585907 0.0653186 c 11 9 953 796 bf 12 9 964 796 bf 0.815686 0.380392 0.0509804 c 11 9 976 796 bf 11 9 987 796 bf 0.68799 0.869118 0.144608 c 12 9 998 796 bf 0.788113 0.13223 0.0356618 c 11 9 1010 796 bf 0.815686 0.380392 0.0509804 c 12 9
 1021 796 bf 11 9 1033 796 bf 0.796569 0.585907 0.0653186 c 11 9 1044 796 bf 0.777451 0.791422 0.0796569 c 12 9 1055 796 bf 0.796569 0.585907 0.0653186 c 11 9 1067 796 bf 0.788113 0.13223 0.0356618 c 11 9 1078 796 bf 0.777451 0.791422 0.0796569 c 12
 9 1089 796 bf 11 9 1101 796 bf 11 9 1112 796 bf 0.802451 0.261275 0.0436275 c 12 9 1123 796 bf 0.815686 0.380392 0.0509804 c 11 9 1135 796 bf 0.788113 0.13223 0.0356618 c 11 9 1146 796 bf 0.802451 0.261275 0.0436275 c 12 9 1157 796 bf 11 9 1169 796
 bf 0.714951 0.0509804 0.0269608 c 11 9 1180 796 bf 0.815686 0.380392 0.0509804 c 12 9 1191 796 bf 0.68799 0.869118 0.144608 c 11 9 1203 796 bf 0.777451 0.791422 0.0796569 c 11 9 1214 796 bf 0.815686 0.380392 0.0509804 c 12 9 1225 796 bf 0.796569
 0.585907 0.0653186 c 11 9 1237 796 bf 0.549755 0.839706 0.244608 c 12 9 1248 796 bf 0.777451 0.791422 0.0796569 c 11 9 1260 796 bf 11 9 1271 796 bf 0.796569 0.585907 0.0653186 c 12 9 1282 796 bf 0.777451 0.791422 0.0796569 c 11 9 1294 796 bf 11 9
 1305 796 bf 0.68799 0.869118 0.144608 c 12 9 1316 796 bf 0.815686 0.380392 0.0509804 c 11 9 1328 796 bf 0.68799 0.869118 0.144608 c 11 9 1339 796 bf 0.777451 0.791422 0.0796569 c 12 9 1350 796 bf 11 9 1362 796 bf 0.68799 0.869118 0.144608 c 11 9
 1373 796 bf 0.4 0.807843 0.352941 c 12 9 1384 796 bf 0.68799 0.869118 0.144608 c 11 9 1396 796 bf 0.796569 0.585907 0.0653186 c 11 9 1407 796 bf 0.549755 0.839706 0.244608 c 12 9 1418 796 bf 0.777451 0.791422 0.0796569 c 11 9 1430 796 bf 0.68799
 0.869118 0.144608 c 11 9 1441 796 bf 12 9 1452 796 bf 0.29326 0.785539 0.529779 c 11 9 1464 796 bf 12 9 1475 796 bf 0.18652 0.763235 0.706618 c 11 9 1487 796 bf 0.122549 0.702941 0.786029 c 11 9 1498 796 bf 12 9 1509 796 bf 0.0588235 0.486275
 0.776471 c 11 9 1521 796 bf 0.122549 0.702941 0.786029 c 11 9 1532 796 bf 0.0906863 0.594608 0.78125 c 12 9 1543 796 bf 11 9 1555 796 bf 0.0588235 0.486275 0.776471 c 11 9 1566 796 bf 12 9 1577 796 bf 11 9 1589 796 bf 11 9 1600 796 bf 12 9 1611 796
 bf 0.0281863 0.253431 0.604902 c 11 9 1623 796 bf 0.0158128 0.151803 0.524225 c 11 9 1634 796 bf 12 9 1645 796 bf 0.00759013 0.0728653 0.45351 c 11 9 1657 796 bf 0.0158128 0.151803 0.524225 c 11 9 1668 796 bf 0.00759013 0.0728653 0.45351 c 12 9 1679
 796 bf 12 9 1702 796 bf 11 9 1714 796 bf 11 9 1725 796 bf 12 9 1736 796 bf 11 9 1748 796 bf 11 9 1759 796 bf 12 9 1770 796 bf 11 9 1782 796 bf 12 9 1804 796 bf 12 9 1838 796 bf 12 9 1872 796 bf 11 10 590 805 bf 12 10 601 805 bf 11 10 613 805 bf
 0.0281863 0.253431 0.604902 c 11 10 624 805 bf 0.0428922 0.365196 0.687255 c 12 10 635 805 bf 0.0906863 0.594608 0.78125 c 11 10 647 805 bf 11 10 658 805 bf 12 10 669 805 bf 0.29326 0.785539 0.529779 c 11 10 681 805 bf 11 10 692 805 bf 12 10 703 805
 bf 0.4 0.807843 0.352941 c 11 10 715 805 bf 0.29326 0.785539 0.529779 c 11 10 726 805 bf 0.549755 0.839706 0.244608 c 12 10 737 805 bf 0.4 0.807843 0.352941 c 11 10 749 805 bf 0.18652 0.763235 0.706618 c 11 10 760 805 bf 0.68799 0.869118 0.144608 c
 12 10 771 805 bf 0.4 0.807843 0.352941 c 11 10 783 805 bf 12 10 794 805 bf 0.68799 0.869118 0.144608 c 11 10 806 805 bf 0.4 0.807843 0.352941 c 11 10 817 805 bf 0.549755 0.839706 0.244608 c 12 10 828 805 bf 0.802451 0.261275 0.0436275 c 11 10 840
 805 bf 0.796569 0.585907 0.0653186 c 11 10 851 805 bf 0.777451 0.791422 0.0796569 c 12 10 862 805 bf 0.815686 0.380392 0.0509804 c 11 10 874 805 bf 0.796569 0.585907 0.0653186 c 11 10 885 805 bf 12 10 896 805 bf 0.815686 0.380392 0.0509804 c 11 10
 908 805 bf 0.796569 0.585907 0.0653186 c 11 10 919 805 bf 0.802451 0.261275 0.0436275 c 12 10 930 805 bf 0.815686 0.380392 0.0509804 c 11 10 942 805 bf 0.796569 0.585907 0.0653186 c 11 10 953 805 bf 0.815686 0.380392 0.0509804 c 12 10 964 805 bf
 0.714951 0.0509804 0.0269608 c 11 10 976 805 bf 0.802451 0.261275 0.0436275 c 11 10 987 805 bf 0.777451 0.791422 0.0796569 c 12 10 998 805 bf 0.714951 0.0509804 0.0269608 c 11 10 1010 805 bf 0.815686 0.380392 0.0509804 c 12 10 1021 805 bf 0.777451
 0.791422 0.0796569 c 11 10 1033 805 bf 0.815686 0.380392 0.0509804 c 11 10 1044 805 bf 0.802451 0.261275 0.0436275 c 12 10 1055 805 bf 11 10 1067 805 bf 0.796569 0.585907 0.0653186 c 11 10 1078 805 bf 12 10 1089 805 bf 11 10 1101 805 bf 11 10 1112
 805 bf 12 10 1123 805 bf 0.815686 0.380392 0.0509804 c 11 10 1135 805 bf 0.802451 0.261275 0.0436275 c 11 10 1146 805 bf 0.777451 0.791422 0.0796569 c 12 10 1157 805 bf 0.714951 0.0509804 0.0269608 c 11 10 1169 805 bf 11 10 1180 805 bf 0.815686
 0.380392 0.0509804 c 12 10 1191 805 bf 0.802451 0.261275 0.0436275 c 11 10 1203 805 bf 0.788113 0.13223 0.0356618 c 11 10 1214 805 bf 0.796569 0.585907 0.0653186 c 12 10 1225 805 bf 0.815686 0.380392 0.0509804 c 11 10 1237 805 bf 12 10 1248 805 bf
 0.777451 0.791422 0.0796569 c 11 10 1260 805 bf 11 10 1271 805 bf 0.815686 0.380392 0.0509804 c 12 10 1282 805 bf 0.549755 0.839706 0.244608 c 11 10 1294 805 bf 0.796569 0.585907 0.0653186 c 11 10 1305 805 bf 0.815686 0.380392 0.0509804 c 12 10 1316
 805 bf 0.796569 0.585907 0.0653186 c 11 10 1328 805 bf 0.68799 0.869118 0.144608 c 11 10 1339 805 bf 12 10 1350 805 bf 0.796569 0.585907 0.0653186 c 11 10 1362 805 bf 0.777451 0.791422 0.0796569 c 11 10 1373 805 bf 0.4 0.807843 0.352941 c 12 10 1384
 805 bf 0.68799 0.869118 0.144608 c 11 10 1396 805 bf 0.4 0.807843 0.352941 c 11 10 1407 805 bf 0.796569 0.585907 0.0653186 c 12 10 1418 805 bf 0.549755 0.839706 0.244608 c 11 10 1430 805 bf 0.29326 0.785539 0.529779 c 11 10 1441 805 bf 0.796569
 0.585907 0.0653186 c 12 10 1452 805 bf 0.4 0.807843 0.352941 c 11 10 1464 805 bf 12 10 1475 805 bf 0.18652 0.763235 0.706618 c 11 10 1487 805 bf 0.29326 0.785539 0.529779 c 11 10 1498 805 bf 0.122549 0.702941 0.786029 c 12 10 1509 805 bf 0.0588235
 0.486275 0.776471 c 11 10 1521 805 bf 0.18652 0.763235 0.706618 c 11 10 1532 805 bf 0.0906863 0.594608 0.78125 c 12 10 1543 805 bf 0.122549 0.702941 0.786029 c 11 10 1555 805 bf 0.0588235 0.486275 0.776471 c 11 10 1566 805 bf 12 10 1577 805 bf 11 10
 1589 805 bf 11 10 1600 805 bf 0.0906863 0.594608 0.78125 c 12 10 1611 805 bf 0.0428922 0.365196 0.687255 c 11 10 1623 805 bf 0.00759013 0.0728653 0.45351 c 11 10 1634 805 bf 0.0281863 0.253431 0.604902 c 12 10 1645 805 bf 0.0158128 0.151803 0.524225
 c 11 10 1657 805 bf 11 10 1668 805 bf 0.00759013 0.0728653 0.45351 c 12 10 1679 805 bf 11 10 1691 805 bf 12 10 1702 805 bf 0.0158128 0.151803 0.524225 c 11 10 1714 805 bf 0.00759013 0.0728653 0.45351 c 11 10 1725 805 bf 12 10 1736 805 bf 11 10 1748
 805 bf 11 10 1782 805 bf 12 10 1804 805 bf 11 10 1850 805 bf 12 10 567 815 bf 0.0158128 0.151803 0.524225 c 12 10 601 815 bf 11 10 613 815 bf 11 10 624 815 bf 0.0588235 0.486275 0.776471 c 12 10 635 815 bf 11 10 647 815 bf 0.0906863 0.594608 0.78125
 c 11 10 658 815 bf 0.122549 0.702941 0.786029 c 12 10 669 815 bf 0.18652 0.763235 0.706618 c 11 10 681 815 bf 11 10 692 815 bf 0.29326 0.785539 0.529779 c 12 10 703 815 bf 11 10 715 815 bf 0.4 0.807843 0.352941 c 11 10 726 815 bf 12 10 737 815 bf 11
 10 749 815 bf 0.549755 0.839706 0.244608 c 11 10 760 815 bf 12 10 771 815 bf 0.68799 0.869118 0.144608 c 11 10 783 815 bf 0.549755 0.839706 0.244608 c 12 10 794 815 bf 0.796569 0.585907 0.0653186 c 11 10 806 815 bf 0.68799 0.869118 0.144608 c 11 10
 817 815 bf 12 10 828 815 bf 11 10 840 815 bf 11 10 851 815 bf 12 10 862 815 bf 0.777451 0.791422 0.0796569 c 11 10 874 815 bf 0.815686 0.380392 0.0509804 c 11 10 885 815 bf 0.777451 0.791422 0.0796569 c 12 10 896 815 bf 11 10 908 815 bf 11 10 919
 815 bf 0.796569 0.585907 0.0653186 c 12 10 930 815 bf 0.815686 0.380392 0.0509804 c 11 10 942 815 bf 0.68799 0.869118 0.144608 c 11 10 953 815 bf 0.815686 0.380392 0.0509804 c 12 10 964 815 bf 0.796569 0.585907 0.0653186 c 11 10 976 815 bf 0.802451
 0.261275 0.0436275 c 11 10 987 815 bf 0.796569 0.585907 0.0653186 c 12 10 998 815 bf 11 10 1010 815 bf 0.68799 0.869118 0.144608 c 12 10 1021 815 bf 0.777451 0.791422 0.0796569 c 11 10 1033 815 bf 0.802451 0.261275 0.0436275 c 11 10 1044 815 bf
 0.788113 0.13223 0.0356618 c 12 10 1055 815 bf 11 10 1067 815 bf 0.777451 0.791422 0.0796569 c 11 10 1078 815 bf 0.796569 0.585907 0.0653186 c 12 10 1089 815 bf 0.714951 0.0509804 0.0269608 c 11 10 1101 815 bf 0.68799 0.869118 0.144608 c 11 10 1112
 815 bf 0.777451 0.791422 0.0796569 c 12 10 1123 815 bf 0.815686 0.380392 0.0509804 c 11 10 1135 815 bf 0.796569 0.585907 0.0653186 c 11 10 1146 815 bf 0.788113 0.13223 0.0356618 c 12 10 1157 815 bf 0.815686 0.380392 0.0509804 c 11 10 1169 815 bf
 0.796569 0.585907 0.0653186 c 11 10 1180 815 bf 0.549755 0.839706 0.244608 c 12 10 1191 815 bf 0.815686 0.380392 0.0509804 c 11 10 1203 815 bf 0.796569 0.585907 0.0653186 c 11 10 1214 815 bf 12 10 1225 815 bf 0.815686 0.380392 0.0509804 c 11 10 1237
 815 bf 12 10 1248 815 bf 0.796569 0.585907 0.0653186 c 11 10 1260 815 bf 0.777451 0.791422 0.0796569 c 11 10 1271 815 bf 0.815686 0.380392 0.0509804 c 12 10 1282 815 bf 0.796569 0.585907 0.0653186 c 11 10 1294 815 bf 0.777451 0.791422 0.0796569 c 11
 10 1305 815 bf 0.815686 0.380392 0.0509804 c 12 10 1316 815 bf 0.777451 0.791422 0.0796569 c 11 10 1328 815 bf 11 10 1339 815 bf 0.68799 0.869118 0.144608 c 12 10 1350 815 bf 0.777451 0.791422 0.0796569 c 11 10 1362 815 bf 0.796569 0.585907
 0.0653186 c 11 10 1373 815 bf 0.777451 0.791422 0.0796569 c 12 10 1384 815 bf 0.549755 0.839706 0.244608 c 11 10 1396 815 bf 0.68799 0.869118 0.144608 c 11 10 1407 815 bf 0.796569 0.585907 0.0653186 c 12 10 1418 815 bf 0.4 0.807843 0.352941 c 11 10
 1430 815 bf 11 10 1441 815 bf 0.68799 0.869118 0.144608 c 12 10 1452 815 bf 0.549755 0.839706 0.244608 c 11 10 1464 815 bf 0.4 0.807843 0.352941 c 12 10 1475 815 bf 11 10 1487 815 bf 0.29326 0.785539 0.529779 c 11 10 1498 815 bf 0.122549 0.702941
 0.786029 c 12 10 1509 815 bf 0.18652 0.763235 0.706618 c 11 10 1521 815 bf 0.29326 0.785539 0.529779 c 11 10 1532 815 bf 0.0906863 0.594608 0.78125 c 12 10 1543 815 bf 11 10 1555 815 bf 0.0428922 0.365196 0.687255 c 11 10 1566 815 bf 0.0906863
 0.594608 0.78125 c 12 10 1577 815 bf 0.122549 0.702941 0.786029 c 11 10 1589 815 bf 0.0588235 0.486275 0.776471 c 11 10 1600 815 bf 0.0281863 0.253431 0.604902 c 12 10 1611 815 bf 0.0428922 0.365196 0.687255 c 11 10 1623 815 bf 0.0158128 0.151803
 0.524225 c 11 10 1634 815 bf 0.0281863 0.253431 0.604902 c 12 10 1645 815 bf 0.0158128 0.151803 0.524225 c 11 10 1657 815 bf 0.0281863 0.253431 0.604902 c 11 10 1668 815 bf 0.00759013 0.0728653 0.45351 c 12 10 1679 815 bf 11 10 1691 815 bf 12 10
 1702 815 bf 0.0158128 0.151803 0.524225 c 11 10 1714 815 bf 0.00759013 0.0728653 0.45351 c 12 10 1736 815 bf 11 10 1748 815 bf 11 10 1759 815 bf 12 10 1770 815 bf 12 10 1804 815 bf 11 10 1861 815 bf 11 10 1895 815 bf 11 10 579 825 bf 11 10 590 825
 bf 0.0158128 0.151803 0.524225 c 12 10 601 825 bf 11 10 613 825 bf 0.0428922 0.365196 0.687255 c 11 10 624 825 bf 0.0588235 0.486275 0.776471 c 12 10 635 825 bf 11 10 647 825 bf 0.0906863 0.594608 0.78125 c 11 10 658 825 bf 12 10 669 825 bf 11 10
 681 825 bf 0.122549 0.702941 0.786029 c 11 10 692 825 bf 0.29326 0.785539 0.529779 c 12 10 703 825 bf 0.4 0.807843 0.352941 c 11 10 715 825 bf 0.29326 0.785539 0.529779 c 11 10 726 825 bf 0.549755 0.839706 0.244608 c 12 10 737 825 bf 0.4 0.807843
 0.352941 c 11 10 749 825 bf 0.29326 0.785539 0.529779 c 11 10 760 825 bf 0.4 0.807843 0.352941 c 12 10 771 825 bf 0.68799 0.869118 0.144608 c 11 10 783 825 bf 0.4 0.807843 0.352941 c 12 10 794 825 bf 0.68799 0.869118 0.144608 c 11 10 806 825 bf 11
 10 817 825 bf 12 10 828 825 bf 11 10 840 825 bf 0.549755 0.839706 0.244608 c 11 10 851 825 bf 0.68799 0.869118 0.144608 c 12 10 862 825 bf 0.796569 0.585907 0.0653186 c 11 10 874 825 bf 0.549755 0.839706 0.244608 c 11 10 885 825 bf 12 10 896 825 bf
 0.68799 0.869118 0.144608 c 11 10 908 825 bf 0.777451 0.791422 0.0796569 c 11 10 919 825 bf 12 10 930 825 bf 0.796569 0.585907 0.0653186 c 11 10 942 825 bf 0.815686 0.380392 0.0509804 c 11 10 953 825 bf 0.796569 0.585907 0.0653186 c 12 10 964 825 bf
 0.714951 0.0509804 0.0269608 c 11 10 976 825 bf 0.796569 0.585907 0.0653186 c 11 10 987 825 bf 12 10 998 825 bf 11 10 1010 825 bf 0.788113 0.13223 0.0356618 c 12 10 1021 825 bf 0.815686 0.380392 0.0509804 c 11 10 1033 825 bf 0.796569 0.585907
 0.0653186 c 11 10 1044 825 bf 0.802451 0.261275 0.0436275 c 12 10 1055 825 bf 0.777451 0.791422 0.0796569 c 11 10 1067 825 bf 11 10 1078 825 bf 0.815686 0.380392 0.0509804 c 12 10 1089 825 bf 0.796569 0.585907 0.0653186 c 11 10 1101 825 bf 0.573162
 0.0254902 0.017402 c 11 10 1112 825 bf 0.796569 0.585907 0.0653186 c 12 10 1123 825 bf 0.815686 0.380392 0.0509804 c 11 10 1135 825 bf 0.777451 0.791422 0.0796569 c 11 10 1146 825 bf 0.788113 0.13223 0.0356618 c 12 10 1157 825 bf 0.796569 0.585907
 0.0653186 c 11 10 1169 825 bf 11 10 1180 825 bf 12 10 1191 825 bf 0.802451 0.261275 0.0436275 c 11 10 1203 825 bf 11 10 1214 825 bf 0.796569 0.585907 0.0653186 c 12 10 1225 825 bf 0.777451 0.791422 0.0796569 c 11 10 1237 825 bf 0.802451 0.261275
 0.0436275 c 12 10 1248 825 bf 0.796569 0.585907 0.0653186 c 11 10 1260 825 bf 11 10 1271 825 bf 0.68799 0.869118 0.144608 c 12 10 1282 825 bf 0.796569 0.585907 0.0653186 c 11 10 1294 825 bf 0.777451 0.791422 0.0796569 c 11 10 1305 825 bf 0.68799
 0.869118 0.144608 c 12 10 1316 825 bf 0.788113 0.13223 0.0356618 c 11 10 1328 825 bf 0.802451 0.261275 0.0436275 c 11 10 1339 825 bf 0.68799 0.869118 0.144608 c 12 10 1350 825 bf 11 10 1362 825 bf 0.29326 0.785539 0.529779 c 11 10 1373 825 bf 12 10
 1384 825 bf 0.18652 0.763235 0.706618 c 11 10 1396 825 bf 0.549755 0.839706 0.244608 c 11 10 1407 825 bf 0.4 0.807843 0.352941 c 12 10 1418 825 bf 0.68799 0.869118 0.144608 c 11 10 1430 825 bf 0.4 0.807843 0.352941 c 11 10 1441 825 bf 12 10 1452 825
 bf 0.796569 0.585907 0.0653186 c 11 10 1464 825 bf 0.29326 0.785539 0.529779 c 12 10 1475 825 bf 0.4 0.807843 0.352941 c 11 10 1487 825 bf 0.18652 0.763235 0.706618 c 11 10 1498 825 bf 0.122549 0.702941 0.786029 c 12 10 1509 825 bf 11 10 1521 825 bf
 11 10 1532 825 bf 0.0906863 0.594608 0.78125 c 12 10 1543 825 bf 0.0588235 0.486275 0.776471 c 11 10 1555 825 bf 11 10 1566 825 bf 0.0428922 0.365196 0.687255 c 12 10 1577 825 bf 0.0588235 0.486275 0.776471 c 11 10 1589 825 bf 0.0158128 0.151803
 0.524225 c 11 10 1600 825 bf 0.0588235 0.486275 0.776471 c 12 10 1611 825 bf 0.0428922 0.365196 0.687255 c 11 10 1623 825 bf 0.0906863 0.594608 0.78125 c 11 10 1634 825 bf 0.0158128 0.151803 0.524225 c 12 10 1645 825 bf 0.0281863 0.253431 0.604902 c
 11 10 1657 825 bf 11 10 1668 825 bf 0.00759013 0.0728653 0.45351 c 12 10 1679 825 bf 11 10 1691 825 bf 12 10 1702 825 bf 0.0158128 0.151803 0.524225 c 11 10 1714 825 bf 0.00759013 0.0728653 0.45351 c 11 10 1725 825 bf 12 10 1736 825 bf 0.0158128
 0.151803 0.524225 c 11 10 1748 825 bf 0.00759013 0.0728653 0.45351 c 11 10 1759 825 bf 11 10 1816 825 bf 12 10 1838 825 bf 11 9 590 835 bf 12 9 601 835 bf 0.0281863 0.253431 0.604902 c 11 9 613 835 bf 0.0158128 0.151803 0.524225 c 11 9 624 835 bf
 0.0428922 0.365196 0.687255 c 12 9 635 835 bf 11 9 647 835 bf 0.0588235 0.486275 0.776471 c 11 9 658 835 bf 0.0906863 0.594608 0.78125 c 12 9 669 835 bf 0.29326 0.785539 0.529779 c 11 9 681 835 bf 0.4 0.807843 0.352941 c 11 9 692 835 bf 0.18652
 0.763235 0.706618 c 12 9 703 835 bf 0.29326 0.785539 0.529779 c 11 9 715 835 bf 0.18652 0.763235 0.706618 c 11 9 726 835 bf 0.549755 0.839706 0.244608 c 12 9 737 835 bf 0.29326 0.785539 0.529779 c 11 9 749 835 bf 0.68799 0.869118 0.144608 c 11 9 760
 835 bf 0.4 0.807843 0.352941 c 12 9 771 835 bf 0.777451 0.791422 0.0796569 c 11 9 783 835 bf 12 9 794 835 bf 0.68799 0.869118 0.144608 c 11 9 806 835 bf 0.796569 0.585907 0.0653186 c 11 9 817 835 bf 0.68799 0.869118 0.144608 c 12 9 828 835 bf
 0.796569 0.585907 0.0653186 c 11 9 840 835 bf 0.777451 0.791422 0.0796569 c 11 9 851 835 bf 12 9 862 835 bf 0.68799 0.869118 0.144608 c 11 9 874 835 bf 11 9 885 835 bf 12 9 896 835 bf 0.815686 0.380392 0.0509804 c 11 9 908 835 bf 0.777451 0.791422
 0.0796569 c 11 9 919 835 bf 0.802451 0.261275 0.0436275 c 12 9 930 835 bf 0.68799 0.869118 0.144608 c 11 9 942 835 bf 11 9 953 835 bf 0.815686 0.380392 0.0509804 c 12 9 964 835 bf 0.802451 0.261275 0.0436275 c 11 9 976 835 bf 0.815686 0.380392
 0.0509804 c 11 9 987 835 bf 12 9 998 835 bf 0.68799 0.869118 0.144608 c 11 9 1010 835 bf 0.788113 0.13223 0.0356618 c 12 9 1021 835 bf 0.802451 0.261275 0.0436275 c 11 9 1033 835 bf 11 9 1044 835 bf 0.796569 0.585907 0.0653186 c 12 9 1055 835 bf
 0.802451 0.261275 0.0436275 c 11 9 1067 835 bf 0.815686 0.380392 0.0509804 c 11 9 1078 835 bf 0.549755 0.839706 0.244608 c 12 9 1089 835 bf 0.802451 0.261275 0.0436275 c 11 9 1101 835 bf 0.796569 0.585907 0.0653186 c 11 9 1112 835 bf 12 9 1123 835
 bf 11 9 1135 835 bf 0.777451 0.791422 0.0796569 c 11 9 1146 835 bf 0.796569 0.585907 0.0653186 c 12 9 1157 835 bf 0.802451 0.261275 0.0436275 c 11 9 1169 835 bf 0.68799 0.869118 0.144608 c 11 9 1180 835 bf 0.777451 0.791422 0.0796569 c 12 9 1191 835
 bf 0.796569 0.585907 0.0653186 c 11 9 1203 835 bf 0.788113 0.13223 0.0356618 c 11 9 1214 835 bf 0.796569 0.585907 0.0653186 c 12 9 1225 835 bf 0.68799 0.869118 0.144608 c 11 9 1237 835 bf 0.815686 0.380392 0.0509804 c 12 9 1248 835 bf 0.796569
 0.585907 0.0653186 c 11 9 1260 835 bf 11 9 1271 835 bf 0.777451 0.791422 0.0796569 c 12 9 1282 835 bf 0.815686 0.380392 0.0509804 c 11 9 1294 835 bf 0.549755 0.839706 0.244608 c 11 9 1305 835 bf 0.777451 0.791422 0.0796569 c 12 9 1316 835 bf
 0.796569 0.585907 0.0653186 c 11 9 1328 835 bf 0.777451 0.791422 0.0796569 c 11 9 1339 835 bf 0.815686 0.380392 0.0509804 c 12 9 1350 835 bf 0.796569 0.585907 0.0653186 c 11 9 1362 835 bf 0.68799 0.869118 0.144608 c 11 9 1373 835 bf 0.29326 0.785539
 0.529779 c 12 9 1384 835 bf 0.796569 0.585907 0.0653186 c 11 9 1396 835 bf 0.29326 0.785539 0.529779 c 11 9 1407 835 bf 0.4 0.807843 0.352941 c 12 9 1418 835 bf 0.549755 0.839706 0.244608 c 11 9 1430 835 bf 0.4 0.807843 0.352941 c 11 9 1441 835 bf
 0.549755 0.839706 0.244608 c 12 9 1452 835 bf 11 9 1464 835 bf 0.4 0.807843 0.352941 c 12 9 1475 835 bf 0.18652 0.763235 0.706618 c 11 9 1487 835 bf 0.122549 0.702941 0.786029 c 11 9 1498 835 bf 0.0906863 0.594608 0.78125 c 12 9 1509 835 bf 0.18652
 0.763235 0.706618 c 11 9 1521 835 bf 11 9 1532 835 bf 0.122549 0.702941 0.786029 c 12 9 1543 835 bf 0.0906863 0.594608 0.78125 c 11 9 1555 835 bf 0.0428922 0.365196 0.687255 c 11 9 1566 835 bf 12 9 1577 835 bf 0.0588235 0.486275 0.776471 c 11 9 1589
 835 bf 0.0428922 0.365196 0.687255 c 11 9 1600 835 bf 12 9 1611 835 bf 0.0906863 0.594608 0.78125 c 11 9 1623 835 bf 0.0428922 0.365196 0.687255 c 11 9 1634 835 bf 0.0281863 0.253431 0.604902 c 12 9 1645 835 bf 11 9 1657 835 bf 11 9 1668 835 bf
 0.0158128 0.151803 0.524225 c 12 9 1679 835 bf 11 9 1691 835 bf 0.00759013 0.0728653 0.45351 c 12 9 1702 835 bf 0.0158128 0.151803 0.524225 c 11 9 1714 835 bf 11 9 1725 835 bf 0.00759013 0.0728653 0.45351 c 12 9 1736 835 bf 11 9 1759 835 bf 12 9
 1770 835 bf 11 9 1782 835 bf 11 9 1793 835 bf 11 9 1816 835 bf 11 9 1827 835 bf 12 9 1872 835 bf 12 10 567 844 bf 12 10 601 844 bf 11 10 613 844 bf 0.0428922 0.365196 0.687255 c 11 10 624 844 bf 0.0281863 0.253431 0.604902 c 12 10 635 844 bf
 0.122549 0.702941 0.786029 c 11 10 647 844 bf 0.0906863 0.594608 0.78125 c 11 10 658 844 bf 12 10 669 844 bf 0.122549 0.702941 0.786029 c 11 10 681 844 bf 0.18652 0.763235 0.706618 c 11 10 692 844 bf 12 10 703 844 bf 0.4 0.807843 0.352941 c 11 10
 715 844 bf 0.18652 0.763235 0.706618 c 11 10 726 844 bf 0.4 0.807843 0.352941 c 12 10 737 844 bf 0.29326 0.785539 0.529779 c 11 10 749 844 bf 0.4 0.807843 0.352941 c 11 10 760 844 bf 12 10 771 844 bf 0.796569 0.585907 0.0653186 c 11 10 783 844 bf
 0.68799 0.869118 0.144608 c 12 10 794 844 bf 0.4 0.807843 0.352941 c 11 10 806 844 bf 0.796569 0.585907 0.0653186 c 11 10 817 844 bf 0.777451 0.791422 0.0796569 c 12 10 828 844 bf 11 10 840 844 bf 0.68799 0.869118 0.144608 c 11 10 851 844 bf 12 10
 862 844 bf 11 10 874 844 bf 0.815686 0.380392 0.0509804 c 11 10 885 844 bf 0.796569 0.585907 0.0653186 c 12 10 896 844 bf 0.777451 0.791422 0.0796569 c 11 10 908 844 bf 0.68799 0.869118 0.144608 c 11 10 919 844 bf 0.796569 0.585907 0.0653186 c 12 10
 930 844 bf 11 10 942 844 bf 0.815686 0.380392 0.0509804 c 11 10 953 844 bf 0.68799 0.869118 0.144608 c 12 10 964 844 bf 0.815686 0.380392 0.0509804 c 11 10 976 844 bf 11 10 987 844 bf 0.68799 0.869118 0.144608 c 12 10 998 844 bf 0.796569 0.585907
 0.0653186 c 11 10 1010 844 bf 0.788113 0.13223 0.0356618 c 12 10 1021 844 bf 0.796569 0.585907 0.0653186 c 11 10 1033 844 bf 0.714951 0.0509804 0.0269608 c 11 10 1044 844 bf 0.802451 0.261275 0.0436275 c 12 10 1055 844 bf 11 10 1067 844 bf 11 10
 1078 844 bf 0.777451 0.791422 0.0796569 c 12 10 1089 844 bf 0.802451 0.261275 0.0436275 c 11 10 1101 844 bf 0.796569 0.585907 0.0653186 c 11 10 1112 844 bf 12 10 1123 844 bf 11 10 1135 844 bf 11 10 1146 844 bf 12 10 1157 844 bf 0.815686 0.380392
 0.0509804 c 11 10 1169 844 bf 0.777451 0.791422 0.0796569 c 11 10 1180 844 bf 0.802451 0.261275 0.0436275 c 12 10 1191 844 bf 0.777451 0.791422 0.0796569 c 11 10 1203 844 bf 0.815686 0.380392 0.0509804 c 11 10 1214 844 bf 0.777451 0.791422 0.0796569
 c 12 10 1225 844 bf 0.68799 0.869118 0.144608 c 11 10 1237 844 bf 0.815686 0.380392 0.0509804 c 12 10 1248 844 bf 11 10 1260 844 bf 0.4 0.807843 0.352941 c 11 10 1271 844 bf 0.796569 0.585907 0.0653186 c 12 10 1282 844 bf 0.802451 0.261275 0.0436275
 c 11 10 1294 844 bf 0.796569 0.585907 0.0653186 c 11 10 1305 844 bf 0.777451 0.791422 0.0796569 c 12 10 1316 844 bf 0.29326 0.785539 0.529779 c 11 10 1328 844 bf 0.68799 0.869118 0.144608 c 11 10 1339 844 bf 0.777451 0.791422 0.0796569 c 12 10 1350
 844 bf 11 10 1362 844 bf 11 10 1373 844 bf 0.68799 0.869118 0.144608 c 12 10 1384 844 bf 0.777451 0.791422 0.0796569 c 11 10 1396 844 bf 0.18652 0.763235 0.706618 c 11 10 1407 844 bf 0.4 0.807843 0.352941 c 12 10 1418 844 bf 11 10 1430 844 bf
 0.68799 0.869118 0.144608 c 11 10 1441 844 bf 0.29326 0.785539 0.529779 c 12 10 1452 844 bf 0.777451 0.791422 0.0796569 c 11 10 1464 844 bf 0.18652 0.763235 0.706618 c 12 10 1475 844 bf 11 10 1487 844 bf 0.29326 0.785539 0.529779 c 11 10 1498 844 bf
 0.122549 0.702941 0.786029 c 12 10 1509 844 bf 0.4 0.807843 0.352941 c 11 10 1521 844 bf 0.18652 0.763235 0.706618 c 11 10 1532 844 bf 0.122549 0.702941 0.786029 c 12 10 1543 844 bf 0.0588235 0.486275 0.776471 c 11 10 1555 844 bf 0.0428922 0.365196
 0.687255 c 11 10 1566 844 bf 12 10 1577 844 bf 0.0281863 0.253431 0.604902 c 11 10 1589 844 bf 11 10 1600 844 bf 0.0428922 0.365196 0.687255 c 12 10 1611 844 bf 0.0281863 0.253431 0.604902 c 11 10 1623 844 bf 11 10 1634 844 bf 12 10 1645 844 bf
 0.0158128 0.151803 0.524225 c 11 10 1657 844 bf 0.0281863 0.253431 0.604902 c 11 10 1668 844 bf 12 10 1679 844 bf 0.0158128 0.151803 0.524225 c 11 10 1691 844 bf 12 10 1702 844 bf 0.00759013 0.0728653 0.45351 c 11 10 1714 844 bf 0.0158128 0.151803
 0.524225 c 11 10 1725 844 bf 0.00759013 0.0728653 0.45351 c 12 10 1736 844 bf 11 10 1748 844 bf 11 10 1759 844 bf 12 10 1770 844 bf 11 10 1782 844 bf 11 10 1793 844 bf 12 10 1906 844 bf 0.0158128 0.151803 0.524225 c 11 10 590 854 bf 11 10 613 854 bf
 0.0281863 0.253431 0.604902 c 11 10 624 854 bf 12 10 635 854 bf 0.0588235 0.486275 0.776471 c 11 10 647 854 bf 0.0428922 0.365196 0.687255 c 11 10 658 854 bf 0.0906863 0.594608 0.78125 c 12 10 669 854 bf 0.18652 0.763235 0.706618 c 11 10 681 854 bf
 0.122549 0.702941 0.786029 c 11 10 692 854 bf 0.18652 0.763235 0.706618 c 12 10 703 854 bf 0.122549 0.702941 0.786029 c 11 10 715 854 bf 0.29326 0.785539 0.529779 c 11 10 726 854 bf 0.4 0.807843 0.352941 c 12 10 737 854 bf 0.18652 0.763235 0.706618
 c 11 10 749 854 bf 0.68799 0.869118 0.144608 c 11 10 760 854 bf 12 10 771 854 bf 0.549755 0.839706 0.244608 c 11 10 783 854 bf 0.4 0.807843 0.352941 c 12 10 794 854 bf 0.549755 0.839706 0.244608 c 11 10 806 854 bf 11 10 817 854 bf 0.777451 0.791422
 0.0796569 c 12 10 828 854 bf 0.68799 0.869118 0.144608 c 11 10 840 854 bf 0.777451 0.791422 0.0796569 c 11 10 851 854 bf 0.796569 0.585907 0.0653186 c 12 10 862 854 bf 0.68799 0.869118 0.144608 c 11 10 874 854 bf 0.777451 0.791422 0.0796569 c 11 10
 885 854 bf 0.4 0.807843 0.352941 c 12 10 896 854 bf 0.777451 0.791422 0.0796569 c 11 10 908 854 bf 0.796569 0.585907 0.0653186 c 11 10 919 854 bf 12 10 930 854 bf 11 10 942 854 bf 0.68799 0.869118 0.144608 c 11 10 953 854 bf 12 10 964 854 bf
 0.777451 0.791422 0.0796569 c 11 10 976 854 bf 0.802451 0.261275 0.0436275 c 11 10 987 854 bf 0.68799 0.869118 0.144608 c 12 10 998 854 bf 0.796569 0.585907 0.0653186 c 11 10 1010 854 bf 0.802451 0.261275 0.0436275 c 12 10 1021 854 bf 11 10 1033 854
 bf 11 10 1044 854 bf 12 10 1055 854 bf 11 10 1067 854 bf 0.815686 0.380392 0.0509804 c 11 10 1078 854 bf 0.802451 0.261275 0.0436275 c 12 10 1089 854 bf 0.788113 0.13223 0.0356618 c 11 10 1101 854 bf 0.815686 0.380392 0.0509804 c 11 10 1112 854 bf
 12 10 1123 854 bf 0.68799 0.869118 0.144608 c 11 10 1135 854 bf 0.777451 0.791422 0.0796569 c 11 10 1146 854 bf 0.796569 0.585907 0.0653186 c 12 10 1157 854 bf 11 10 1169 854 bf 0.777451 0.791422 0.0796569 c 11 10 1180 854 bf 0.815686 0.380392
 0.0509804 c 12 10 1191 854 bf 0.777451 0.791422 0.0796569 c 11 10 1203 854 bf 0.796569 0.585907 0.0653186 c 11 10 1214 854 bf 0.549755 0.839706 0.244608 c 12 10 1225 854 bf 0.777451 0.791422 0.0796569 c 11 10 1237 854 bf 12 10 1248 854 bf 0.796569
 0.585907 0.0653186 c 11 10 1260 854 bf 0.4 0.807843 0.352941 c 11 10 1271 854 bf 0.777451 0.791422 0.0796569 c 12 10 1282 854 bf 0.796569 0.585907 0.0653186 c 11 10 1294 854 bf 0.4 0.807843 0.352941 c 11 10 1305 854 bf 0.549755 0.839706 0.244608 c
 12 10 1316 854 bf 11 10 1328 854 bf 0.4 0.807843 0.352941 c 11 10 1339 854 bf 0.68799 0.869118 0.144608 c 12 10 1350 854 bf 0.4 0.807843 0.352941 c 11 10 1362 854 bf 0.777451 0.791422 0.0796569 c 11 10 1373 854 bf 0.796569 0.585907 0.0653186 c 12 10
 1384 854 bf 0.549755 0.839706 0.244608 c 11 10 1396 854 bf 0.4 0.807843 0.352941 c 11 10 1407 854 bf 12 10 1418 854 bf 0.18652 0.763235 0.706618 c 11 10 1430 854 bf 0.68799 0.869118 0.144608 c 11 10 1441 854 bf 0.4 0.807843 0.352941 c 12 10 1452 854
 bf 11 10 1464 854 bf 0.29326 0.785539 0.529779 c 12 10 1475 854 bf 0.4 0.807843 0.352941 c 11 10 1487 854 bf 11 10 1498 854 bf 0.18652 0.763235 0.706618 c 12 10 1509 854 bf 11 10 1521 854 bf 11 10 1532 854 bf 0.0588235 0.486275 0.776471 c 12 10 1543
 854 bf 0.0906863 0.594608 0.78125 c 11 10 1555 854 bf 0.0588235 0.486275 0.776471 c 11 10 1566 854 bf 0.0428922 0.365196 0.687255 c 12 10 1577 854 bf 0.0588235 0.486275 0.776471 c 11 10 1589 854 bf 0.0906863 0.594608 0.78125 c 11 10 1600 854 bf
 0.0428922 0.365196 0.687255 c 12 10 1611 854 bf 11 10 1623 854 bf 0.0281863 0.253431 0.604902 c 11 10 1634 854 bf 12 10 1645 854 bf 11 10 1657 854 bf 11 10 1668 854 bf 0.0158128 0.151803 0.524225 c 12 10 1679 854 bf 0.0281863 0.253431 0.604902 c 11
 10 1691 854 bf 0.0158128 0.151803 0.524225 c 12 10 1702 854 bf 11 10 1714 854 bf 11 10 1725 854 bf 0.00759013 0.0728653 0.45351 c 11 10 1748 854 bf 11 10 1759 854 bf 12 10 1770 854 bf 11 10 1782 854 bf 11 10 1793 854 bf 11 10 1816 854 bf 12 10 1838
 854 bf 11 10 1918 854 bf 11 10 590 864 bf 0.0158128 0.151803 0.524225 c 12 10 601 864 bf 0.00759013 0.0728653 0.45351 c 11 10 613 864 bf 0.0428922 0.365196 0.687255 c 11 10 624 864 bf 12 10 635 864 bf 0.0588235 0.486275 0.776471 c 11 10 647 864 bf
 0.0428922 0.365196 0.687255 c 11 10 658 864 bf 0.0906863 0.594608 0.78125 c 12 10 669 864 bf 0.122549 0.702941 0.786029 c 11 10 681 864 bf 0.18652 0.763235 0.706618 c 11 10 692 864 bf 0.122549 0.702941 0.786029 c 12 10 703 864 bf 11 10 715 864 bf
 0.18652 0.763235 0.706618 c 11 10 726 864 bf 0.29326 0.785539 0.529779 c 12 10 737 864 bf 0.68799 0.869118 0.144608 c 11 10 749 864 bf 0.4 0.807843 0.352941 c 11 10 760 864 bf 0.796569 0.585907 0.0653186 c 12 10 771 864 bf 0.4 0.807843 0.352941 c 11
 10 783 864 bf 0.777451 0.791422 0.0796569 c 12 10 794 864 bf 0.68799 0.869118 0.144608 c 11 10 806 864 bf 11 10 817 864 bf 0.4 0.807843 0.352941 c 12 10 828 864 bf 0.777451 0.791422 0.0796569 c 11 10 840 864 bf 11 10 851 864 bf 0.68799 0.869118
 0.144608 c 12 10 862 864 bf 0.549755 0.839706 0.244608 c 11 10 874 864 bf 0.777451 0.791422 0.0796569 c 11 10 885 864 bf 0.796569 0.585907 0.0653186 c 12 10 896 864 bf 0.549755 0.839706 0.244608 c 11 10 908 864 bf 0.796569 0.585907 0.0653186 c 11 10
 919 864 bf 12 10 930 864 bf 0.68799 0.869118 0.144608 c 11 10 942 864 bf 0.4 0.807843 0.352941 c 11 10 953 864 bf 0.815686 0.380392 0.0509804 c 12 10 964 864 bf 0.68799 0.869118 0.144608 c 11 10 976 864 bf 0.796569 0.585907 0.0653186 c 11 10 987 864
 bf 12 10 998 864 bf 11 10 1010 864 bf 0.815686 0.380392 0.0509804 c 12 10 1021 864 bf 11 10 1033 864 bf 11 10 1044 864 bf 0.796569 0.585907 0.0653186 c 12 10 1055 864 bf 0.68799 0.869118 0.144608 c 11 10 1067 864 bf 0.815686 0.380392 0.0509804 c 11
 10 1078 864 bf 0.777451 0.791422 0.0796569 c 12 10 1089 864 bf 0.815686 0.380392 0.0509804 c 11 10 1101 864 bf 0.802451 0.261275 0.0436275 c 11 10 1112 864 bf 0.777451 0.791422 0.0796569 c 12 10 1123 864 bf 0.796569 0.585907 0.0653186 c 11 10 1135
 864 bf 11 10 1146 864 bf 12 10 1157 864 bf 0.68799 0.869118 0.144608 c 11 10 1169 864 bf 0.777451 0.791422 0.0796569 c 11 10 1180 864 bf 12 10 1191 864 bf 0.815686 0.380392 0.0509804 c 11 10 1203 864 bf 0.68799 0.869118 0.144608 c 11 10 1214 864 bf
 0.777451 0.791422 0.0796569 c 12 10 1225 864 bf 11 10 1237 864 bf 12 10 1248 864 bf 0.796569 0.585907 0.0653186 c 11 10 1260 864 bf 0.777451 0.791422 0.0796569 c 11 10 1271 864 bf 0.68799 0.869118 0.144608 c 12 10 1282 864 bf 0.777451 0.791422
 0.0796569 c 11 10 1294 864 bf 0.796569 0.585907 0.0653186 c 11 10 1305 864 bf 0.549755 0.839706 0.244608 c 12 10 1316 864 bf 0.777451 0.791422 0.0796569 c 11 10 1328 864 bf 0.549755 0.839706 0.244608 c 11 10 1339 864 bf 12 10 1350 864 bf 11 10 1362
 864 bf 0.68799 0.869118 0.144608 c 11 10 1373 864 bf 12 10 1384 864 bf 0.815686 0.380392 0.0509804 c 11 10 1396 864 bf 0.777451 0.791422 0.0796569 c 11 10 1407 864 bf 0.29326 0.785539 0.529779 c 12 10 1418 864 bf 0.777451 0.791422 0.0796569 c 11 10
 1430 864 bf 0.4 0.807843 0.352941 c 11 10 1441 864 bf 0.549755 0.839706 0.244608 c 12 10 1452 864 bf 0.4 0.807843 0.352941 c 11 10 1464 864 bf 0.29326 0.785539 0.529779 c 12 10 1475 864 bf 0.68799 0.869118 0.144608 c 11 10 1487 864 bf 0.18652
 0.763235 0.706618 c 11 10 1498 864 bf 12 10 1509 864 bf 0.122549 0.702941 0.786029 c 11 10 1521 864 bf 11 10 1532 864 bf 0.18652 0.763235 0.706618 c 12 10 1543 864 bf 0.0588235 0.486275 0.776471 c 11 10 1555 864 bf 0.0906863 0.594608 0.78125 c 11 10
 1566 864 bf 12 10 1577 864 bf 0.0588235 0.486275 0.776471 c 11 10 1589 864 bf 0.0428922 0.365196 0.687255 c 11 10 1600 864 bf 0.0588235 0.486275 0.776471 c 12 10 1611 864 bf 0.0428922 0.365196 0.687255 c 11 10 1623 864 bf 0.0906863 0.594608 0.78125
 c 11 10 1634 864 bf 0.0428922 0.365196 0.687255 c 12 10 1645 864 bf 0.0281863 0.253431 0.604902 c 11 10 1657 864 bf 0.0158128 0.151803 0.524225 c 11 10 1668 864 bf 12 10 1679 864 bf 0.00759013 0.0728653 0.45351 c 11 10 1691 864 bf 12 10 1702 864 bf
 11 10 1714 864 bf 11 10 1725 864 bf 11 10 1748 864 bf 11 10 1759 864 bf 12 10 1770 864 bf 11 10 1782 864 bf 11 10 1793 864 bf 11 10 1816 864 bf 12 10 1872 864 bf 11 9 590 874 bf 12 9 601 874 bf 11 9 613 874 bf 0.0281863 0.253431 0.604902 c 11 9 624
 874 bf 0.0428922 0.365196 0.687255 c 12 9 635 874 bf 0.0588235 0.486275 0.776471 c 11 9 647 874 bf 11 9 658 874 bf 0.0906863 0.594608 0.78125 c 12 9 669 874 bf 0.122549 0.702941 0.786029 c 11 9 681 874 bf 0.18652 0.763235 0.706618 c 11 9 692 874 bf
 12 9 703 874 bf 11 9 715 874 bf 0.29326 0.785539 0.529779 c 11 9 726 874 bf 12 9 737 874 bf 0.549755 0.839706 0.244608 c 11 9 749 874 bf 11 9 760 874 bf 0.29326 0.785539 0.529779 c 12 9 771 874 bf 0.68799 0.869118 0.144608 c 11 9 783 874 bf 12 9 794
 874 bf 11 9 806 874 bf 11 9 817 874 bf 12 9 828 874 bf 0.549755 0.839706 0.244608 c 11 9 840 874 bf 0.4 0.807843 0.352941 c 11 9 851 874 bf 0.549755 0.839706 0.244608 c 12 9 862 874 bf 0.777451 0.791422 0.0796569 c 11 9 874 874 bf 0.68799 0.869118
 0.144608 c 11 9 885 874 bf 12 9 896 874 bf 11 9 908 874 bf 0.796569 0.585907 0.0653186 c 11 9 919 874 bf 0.777451 0.791422 0.0796569 c 12 9 930 874 bf 11 9 942 874 bf 0.796569 0.585907 0.0653186 c 11 9 953 874 bf 12 9 964 874 bf 0.815686 0.380392
 0.0509804 c 11 9 976 874 bf 0.796569 0.585907 0.0653186 c 11 9 987 874 bf 0.4 0.807843 0.352941 c 12 9 998 874 bf 0.796569 0.585907 0.0653186 c 11 9 1010 874 bf 12 9 1021 874 bf 0.815686 0.380392 0.0509804 c 11 9 1033 874 bf 0.777451 0.791422
 0.0796569 c 11 9 1044 874 bf 0.815686 0.380392 0.0509804 c 12 9 1055 874 bf 0.796569 0.585907 0.0653186 c 11 9 1067 874 bf 0.802451 0.261275 0.0436275 c 11 9 1078 874 bf 0.777451 0.791422 0.0796569 c 12 9 1089 874 bf 0.788113 0.13223 0.0356618 c 11
 9 1101 874 bf 0.815686 0.380392 0.0509804 c 11 9 1112 874 bf 0.796569 0.585907 0.0653186 c 12 9 1123 874 bf 11 9 1135 874 bf 0.802451 0.261275 0.0436275 c 11 9 1146 874 bf 0.549755 0.839706 0.244608 c 12 9 1157 874 bf 11 9 1169 874 bf 0.777451
 0.791422 0.0796569 c 11 9 1180 874 bf 0.68799 0.869118 0.144608 c 12 9 1191 874 bf 11 9 1203 874 bf 0.549755 0.839706 0.244608 c 11 9 1214 874 bf 0.777451 0.791422 0.0796569 c 12 9 1225 874 bf 0.815686 0.380392 0.0509804 c 11 9 1237 874 bf 0.796569
 0.585907 0.0653186 c 12 9 1248 874 bf 11 9 1260 874 bf 0.815686 0.380392 0.0509804 c 11 9 1271 874 bf 0.777451 0.791422 0.0796569 c 12 9 1282 874 bf 0.796569 0.585907 0.0653186 c 11 9 1294 874 bf 0.4 0.807843 0.352941 c 11 9 1305 874 bf 0.29326
 0.785539 0.529779 c 12 9 1316 874 bf 0.68799 0.869118 0.144608 c 11 9 1328 874 bf 11 9 1339 874 bf 0.796569 0.585907 0.0653186 c 12 9 1350 874 bf 0.549755 0.839706 0.244608 c 11 9 1362 874 bf 0.68799 0.869118 0.144608 c 11 9 1373 874 bf 0.549755
 0.839706 0.244608 c 12 9 1384 874 bf 0.796569 0.585907 0.0653186 c 11 9 1396 874 bf 0.549755 0.839706 0.244608 c 11 9 1407 874 bf 12 9 1418 874 bf 0.29326 0.785539 0.529779 c 11 9 1430 874 bf 11 9 1441 874 bf 12 9 1452 874 bf 11 9 1464 874 bf 0.4
 0.807843 0.352941 c 12 9 1475 874 bf 11 9 1487 874 bf 0.29326 0.785539 0.529779 c 11 9 1498 874 bf 0.18652 0.763235 0.706618 c 12 9 1509 874 bf 0.0906863 0.594608 0.78125 c 11 9 1521 874 bf 0.4 0.807843 0.352941 c 11 9 1532 874 bf 0.0906863 0.594608
 0.78125 c 12 9 1543 874 bf 0.0588235 0.486275 0.776471 c 11 9 1555 874 bf 11 9 1566 874 bf 0.0428922 0.365196 0.687255 c 12 9 1577 874 bf 11 9 1589 874 bf 11 9 1600 874 bf 0.0158128 0.151803 0.524225 c 12 9 1611 874 bf 0.0428922 0.365196 0.687255 c
 11 9 1623 874 bf 11 9 1634 874 bf 0.0158128 0.151803 0.524225 c 12 9 1645 874 bf 11 9 1657 874 bf 11 9 1668 874 bf 0.00759013 0.0728653 0.45351 c 12 9 1679 874 bf 0.0158128 0.151803 0.524225 c 11 9 1691 874 bf 0.00759013 0.0728653 0.45351 c 12 9
 1702 874 bf 11 9 1714 874 bf 11 9 1725 874 bf 12 9 1736 874 bf 11 9 1748 874 bf 11 9 1759 874 bf 12 9 1770 874 bf 11 9 1782 874 bf 12 9 1804 874 bf 12 9 1872 874 bf 12 9 1906 874 bf 11 10 590 883 bf 0.0158128 0.151803 0.524225 c 12 10 601 883 bf 11
 10 613 883 bf 11 10 624 883 bf 0.0428922 0.365196 0.687255 c 12 10 635 883 bf 0.0588235 0.486275 0.776471 c 11 10 647 883 bf 11 10 658 883 bf 0.0428922 0.365196 0.687255 c 12 10 669 883 bf 0.122549 0.702941 0.786029 c 11 10 681 883 bf 0.0906863
 0.594608 0.78125 c 11 10 692 883 bf 0.18652 0.763235 0.706618 c 12 10 703 883 bf 0.4 0.807843 0.352941 c 11 10 715 883 bf 0.549755 0.839706 0.244608 c 11 10 726 883 bf 0.4 0.807843 0.352941 c 12 10 737 883 bf 11 10 749 883 bf 0.18652 0.763235
 0.706618 c 11 10 760 883 bf 0.29326 0.785539 0.529779 c 12 10 771 883 bf 0.549755 0.839706 0.244608 c 11 10 783 883 bf 0.4 0.807843 0.352941 c 12 10 794 883 bf 0.18652 0.763235 0.706618 c 11 10 806 883 bf 0.4 0.807843 0.352941 c 11 10 817 883 bf
 0.68799 0.869118 0.144608 c 12 10 828 883 bf 0.549755 0.839706 0.244608 c 11 10 840 883 bf 0.68799 0.869118 0.144608 c 11 10 851 883 bf 0.796569 0.585907 0.0653186 c 12 10 862 883 bf 0.777451 0.791422 0.0796569 c 11 10 874 883 bf 0.4 0.807843
 0.352941 c 11 10 885 883 bf 0.815686 0.380392 0.0509804 c 12 10 896 883 bf 0.796569 0.585907 0.0653186 c 11 10 908 883 bf 11 10 919 883 bf 12 10 930 883 bf 0.68799 0.869118 0.144608 c 11 10 942 883 bf 0.549755 0.839706 0.244608 c 11 10 953 883 bf
 0.68799 0.869118 0.144608 c 12 10 964 883 bf 0.549755 0.839706 0.244608 c 11 10 976 883 bf 0.815686 0.380392 0.0509804 c 11 10 987 883 bf 12 10 998 883 bf 0.796569 0.585907 0.0653186 c 11 10 1010 883 bf 12 10 1021 883 bf 0.777451 0.791422 0.0796569
 c 11 10 1033 883 bf 0.68799 0.869118 0.144608 c 11 10 1044 883 bf 12 10 1055 883 bf 11 10 1067 883 bf 0.4 0.807843 0.352941 c 11 10 1078 883 bf 0.777451 0.791422 0.0796569 c 12 10 1089 883 bf 11 10 1101 883 bf 0.796569 0.585907 0.0653186 c 11 10
 1112 883 bf 0.68799 0.869118 0.144608 c 12 10 1123 883 bf 0.815686 0.380392 0.0509804 c 11 10 1135 883 bf 0.802451 0.261275 0.0436275 c 11 10 1146 883 bf 0.815686 0.380392 0.0509804 c 12 10 1157 883 bf 0.549755 0.839706 0.244608 c 11 10 1169 883 bf
 0.68799 0.869118 0.144608 c 11 10 1180 883 bf 0.796569 0.585907 0.0653186 c 12 10 1191 883 bf 11 10 1203 883 bf 0.68799 0.869118 0.144608 c 11 10 1214 883 bf 0.4 0.807843 0.352941 c 12 10 1225 883 bf 0.68799 0.869118 0.144608 c 11 10 1237 883 bf
 0.796569 0.585907 0.0653186 c 12 10 1248 883 bf 0.549755 0.839706 0.244608 c 11 10 1260 883 bf 0.68799 0.869118 0.144608 c 11 10 1271 883 bf 12 10 1282 883 bf 0.777451 0.791422 0.0796569 c 11 10 1294 883 bf 0.68799 0.869118 0.144608 c 11 10 1305 883
 bf 0.777451 0.791422 0.0796569 c 12 10 1316 883 bf 0.68799 0.869118 0.144608 c 11 10 1328 883 bf 11 10 1339 883 bf 0.796569 0.585907 0.0653186 c 12 10 1350 883 bf 0.68799 0.869118 0.144608 c 11 10 1362 883 bf 0.796569 0.585907 0.0653186 c 11 10 1373
 883 bf 12 10 1384 883 bf 0.549755 0.839706 0.244608 c 11 10 1396 883 bf 0.4 0.807843 0.352941 c 11 10 1407 883 bf 0.549755 0.839706 0.244608 c 12 10 1418 883 bf 0.18652 0.763235 0.706618 c 11 10 1430 883 bf 0.549755 0.839706 0.244608 c 11 10 1441
 883 bf 0.4 0.807843 0.352941 c 12 10 1452 883 bf 0.549755 0.839706 0.244608 c 11 10 1464 883 bf 0.18652 0.763235 0.706618 c 12 10 1475 883 bf 11 10 1487 883 bf 0.29326 0.785539 0.529779 c 11 10 1498 883 bf 0.18652 0.763235 0.706618 c 12 10 1509 883
 bf 0.122549 0.702941 0.786029 c 11 10 1521 883 bf 0.18652 0.763235 0.706618 c 11 10 1532 883 bf 0.0588235 0.486275 0.776471 c 12 10 1543 883 bf 0.122549 0.702941 0.786029 c 11 10 1555 883 bf 0.0588235 0.486275 0.776471 c 11 10 1566 883 bf 0.0281863
 0.253431 0.604902 c 12 10 1577 883 bf 0.0588235 0.486275 0.776471 c 11 10 1589 883 bf 0.0906863 0.594608 0.78125 c 11 10 1600 883 bf 0.0281863 0.253431 0.604902 c 12 10 1611 883 bf 0.0588235 0.486275 0.776471 c 11 10 1623 883 bf 0.0428922 0.365196
 0.687255 c 11 10 1634 883 bf 0.00759013 0.0728653 0.45351 c 12 10 1645 883 bf 0.0158128 0.151803 0.524225 c 11 10 1657 883 bf 0.0281863 0.253431 0.604902 c 11 10 1668 883 bf 0.0158128 0.151803 0.524225 c 12 10 1679 883 bf 0.00759013 0.0728653
 0.45351 c 11 10 1691 883 bf 12 10 1702 883 bf 0.0158128 0.151803 0.524225 c 11 10 1714 883 bf 0.00759013 0.0728653 0.45351 c 11 10 1725 883 bf 12 10 1736 883 bf 11 10 1748 883 bf 11 10 1759 883 bf 12 10 1770 883 bf 12 10 1804 883 bf 11 10 1816 883
 bf 11 10 1827 883 bf 11 10 590 893 bf 0.0158128 0.151803 0.524225 c 12 10 601 893 bf 0.00759013 0.0728653 0.45351 c 11 10 613 893 bf 0.0281863 0.253431 0.604902 c 11 10 624 893 bf 0.0428922 0.365196 0.687255 c 12 10 635 893 bf 11 10 647 893 bf
 0.0588235 0.486275 0.776471 c 11 10 658 893 bf 0.0906863 0.594608 0.78125 c 12 10 669 893 bf 0.122549 0.702941 0.786029 c 11 10 681 893 bf 11 10 692 893 bf 0.18652 0.763235 0.706618 c 12 10 703 893 bf 0.29326 0.785539 0.529779 c 11 10 715 893 bf 0.4
 0.807843 0.352941 c 11 10 726 893 bf 0.549755 0.839706 0.244608 c 12 10 737 893 bf 11 10 749 893 bf 0.4 0.807843 0.352941 c 11 10 760 893 bf 0.122549 0.702941 0.786029 c 12 10 771 893 bf 0.4 0.807843 0.352941 c 11 10 783 893 bf 0.549755 0.839706
 0.244608 c 12 10 794 893 bf 0.29326 0.785539 0.529779 c 11 10 806 893 bf 0.68799 0.869118 0.144608 c 11 10 817 893 bf 0.549755 0.839706 0.244608 c 12 10 828 893 bf 11 10 840 893 bf 0.796569 0.585907 0.0653186 c 11 10 851 893 bf 12 10 862 893 bf
 0.549755 0.839706 0.244608 c 11 10 874 893 bf 0.68799 0.869118 0.144608 c 11 10 885 893 bf 0.549755 0.839706 0.244608 c 12 10 896 893 bf 11 10 908 893 bf 0.796569 0.585907 0.0653186 c 11 10 919 893 bf 0.549755 0.839706 0.244608 c 12 10 930 893 bf
 0.777451 0.791422 0.0796569 c 11 10 942 893 bf 0.68799 0.869118 0.144608 c 11 10 953 893 bf 0.18652 0.763235 0.706618 c 12 10 964 893 bf 0.815686 0.380392 0.0509804 c 11 10 976 893 bf 0.777451 0.791422 0.0796569 c 11 10 987 893 bf 12 10 998 893 bf
 0.802451 0.261275 0.0436275 c 11 10 1010 893 bf 12 10 1021 893 bf 11 10 1033 893 bf 0.815686 0.380392 0.0509804 c 11 10 1044 893 bf 0.777451 0.791422 0.0796569 c 12 10 1055 893 bf 0.788113 0.13223 0.0356618 c 11 10 1067 893 bf 0.777451 0.791422
 0.0796569 c 11 10 1078 893 bf 0.796569 0.585907 0.0653186 c 12 10 1089 893 bf 0.815686 0.380392 0.0509804 c 11 10 1101 893 bf 0.549755 0.839706 0.244608 c 11 10 1112 893 bf 0.68799 0.869118 0.144608 c 12 10 1123 893 bf 11 10 1135 893 bf 0.777451
 0.791422 0.0796569 c 11 10 1146 893 bf 0.802451 0.261275 0.0436275 c 12 10 1157 893 bf 0.777451 0.791422 0.0796569 c 11 10 1169 893 bf 11 10 1180 893 bf 0.802451 0.261275 0.0436275 c 12 10 1191 893 bf 0.777451 0.791422 0.0796569 c 11 10 1203 893 bf
 0.796569 0.585907 0.0653186 c 11 10 1214 893 bf 0.68799 0.869118 0.144608 c 12 10 1225 893 bf 0.796569 0.585907 0.0653186 c 11 10 1237 893 bf 12 10 1248 893 bf 0.777451 0.791422 0.0796569 c 11 10 1260 893 bf 0.68799 0.869118 0.144608 c 11 10 1271
 893 bf 0.796569 0.585907 0.0653186 c 12 10 1282 893 bf 11 10 1294 893 bf 0.4 0.807843 0.352941 c 11 10 1305 893 bf 0.777451 0.791422 0.0796569 c 12 10 1316 893 bf 0.796569 0.585907 0.0653186 c 11 10 1328 893 bf 0.777451 0.791422 0.0796569 c 11 10
 1339 893 bf 0.68799 0.869118 0.144608 c 12 10 1350 893 bf 0.796569 0.585907 0.0653186 c 11 10 1362 893 bf 0.68799 0.869118 0.144608 c 11 10 1373 893 bf 0.777451 0.791422 0.0796569 c 12 10 1384 893 bf 0.68799 0.869118 0.144608 c 11 10 1396 893 bf 0.4
 0.807843 0.352941 c 11 10 1407 893 bf 0.549755 0.839706 0.244608 c 12 10 1418 893 bf 0.796569 0.585907 0.0653186 c 11 10 1430 893 bf 0.549755 0.839706 0.244608 c 11 10 1441 893 bf 12 10 1452 893 bf 0.4 0.807843 0.352941 c 11 10 1464 893 bf 0.777451
 0.791422 0.0796569 c 12 10 1475 893 bf 0.4 0.807843 0.352941 c 11 10 1487 893 bf 0.29326 0.785539 0.529779 c 11 10 1498 893 bf 12 10 1509 893 bf 0.18652 0.763235 0.706618 c 11 10 1521 893 bf 11 10 1532 893 bf 0.0906863 0.594608 0.78125 c 12 10 1543
 893 bf 0.122549 0.702941 0.786029 c 11 10 1555 893 bf 0.0906863 0.594608 0.78125 c 11 10 1566 893 bf 0.0588235 0.486275 0.776471 c 12 10 1577 893 bf 0.0428922 0.365196 0.687255 c 11 10 1589 893 bf 11 10 1600 893 bf 12 10 1611 893 bf 11 10 1623 893
 bf 0.0281863 0.253431 0.604902 c 11 10 1634 893 bf 12 10 1645 893 bf 0.0158128 0.151803 0.524225 c 11 10 1657 893 bf 11 10 1668 893 bf 12 10 1679 893 bf 0.00759013 0.0728653 0.45351 c 11 10 1691 893 bf 0.0158128 0.151803 0.524225 c 12 10 1702 893 bf
 0.00759013 0.0728653 0.45351 c 11 10 1714 893 bf 11 10 1725 893 bf 12 10 1736 893 bf 11 10 1748 893 bf 11 10 1759 893 bf 12 10 1770 893 bf 11 10 1782 893 bf 11 10 1793 893 bf 11 10 1827 893 bf 11 10 1918 893 bf 11 9 590 903 bf 12 9 601 903 bf
 0.0158128 0.151803 0.524225 c 11 9 613 903 bf 0.0281863 0.253431 0.604902 c 11 9 624 903 bf 12 9 635 903 bf 0.0588235 0.486275 0.776471 c 11 9 647 903 bf 0.0906863 0.594608 0.78125 c 11 9 658 903 bf 12 9 669 903 bf 0.122549 0.702941 0.786029 c 11 9
 681 903 bf 0.0906863 0.594608 0.78125 c 11 9 692 903 bf 0.122549 0.702941 0.786029 c 12 9 703 903 bf 0.29326 0.785539 0.529779 c 11 9 715 903 bf 0.18652 0.763235 0.706618 c 11 9 726 903 bf 0.4 0.807843 0.352941 c 12 9 737 903 bf 0.29326 0.785539
 0.529779 c 11 9 749 903 bf 11 9 760 903 bf 0.4 0.807843 0.352941 c 12 9 771 903 bf 0.18652 0.763235 0.706618 c 11 9 783 903 bf 0.29326 0.785539 0.529779 c 12 9 794 903 bf 0.4 0.807843 0.352941 c 11 9 806 903 bf 0.68799 0.869118 0.144608 c 11 9 817
 903 bf 0.4 0.807843 0.352941 c 12 9 828 903 bf 11 9 840 903 bf 0.549755 0.839706 0.244608 c 11 9 851 903 bf 0.68799 0.869118 0.144608 c 12 9 862 903 bf 0.549755 0.839706 0.244608 c 11 9 874 903 bf 0.4 0.807843 0.352941 c 11 9 885 903 bf 12 9 896 903
 bf 0.777451 0.791422 0.0796569 c 11 9 908 903 bf 11 9 919 903 bf 0.549755 0.839706 0.244608 c 12 9 930 903 bf 0.4 0.807843 0.352941 c 11 9 942 903 bf 0.68799 0.869118 0.144608 c 11 9 953 903 bf 0.777451 0.791422 0.0796569 c 12 9 964 903 bf 11 9 976
 903 bf 0.796569 0.585907 0.0653186 c 11 9 987 903 bf 0.4 0.807843 0.352941 c 12 9 998 903 bf 0.796569 0.585907 0.0653186 c 11 9 1010 903 bf 0.777451 0.791422 0.0796569 c 12 9 1021 903 bf 0.68799 0.869118 0.144608 c 11 9 1033 903 bf 11 9 1044 903 bf
 0.796569 0.585907 0.0653186 c 12 9 1055 903 bf 0.777451 0.791422 0.0796569 c 11 9 1067 903 bf 0.802451 0.261275 0.0436275 c 11 9 1078 903 bf 0.796569 0.585907 0.0653186 c 12 9 1089 903 bf 0.777451 0.791422 0.0796569 c 11 9 1101 903 bf 0.4 0.807843
 0.352941 c 11 9 1112 903 bf 0.549755 0.839706 0.244608 c 12 9 1123 903 bf 0.796569 0.585907 0.0653186 c 11 9 1135 903 bf 0.815686 0.380392 0.0509804 c 11 9 1146 903 bf 0.68799 0.869118 0.144608 c 12 9 1157 903 bf 0.802451 0.261275 0.0436275 c 11 9
 1169 903 bf 0.549755 0.839706 0.244608 c 11 9 1180 903 bf 0.68799 0.869118 0.144608 c 12 9 1191 903 bf 0.549755 0.839706 0.244608 c 11 9 1203 903 bf 0.68799 0.869118 0.144608 c 11 9 1214 903 bf 12 9 1225 903 bf 0.777451 0.791422 0.0796569 c 11 9
 1237 903 bf 0.549755 0.839706 0.244608 c 12 9 1248 903 bf 11 9 1260 903 bf 0.68799 0.869118 0.144608 c 11 9 1271 903 bf 12 9 1282 903 bf 0.4 0.807843 0.352941 c 11 9 1294 903 bf 0.68799 0.869118 0.144608 c 11 9 1305 903 bf 0.4 0.807843 0.352941 c 12
 9 1316 903 bf 0.802451 0.261275 0.0436275 c 11 9 1328 903 bf 0.815686 0.380392 0.0509804 c 11 9 1339 903 bf 0.796569 0.585907 0.0653186 c 12 9 1350 903 bf 0.68799 0.869118 0.144608 c 11 9 1362 903 bf 0.549755 0.839706 0.244608 c 11 9 1373 903 bf
 0.796569 0.585907 0.0653186 c 12 9 1384 903 bf 0.549755 0.839706 0.244608 c 11 9 1396 903 bf 0.29326 0.785539 0.529779 c 11 9 1407 903 bf 0.4 0.807843 0.352941 c 12 9 1418 903 bf 0.815686 0.380392 0.0509804 c 11 9 1430 903 bf 0.549755 0.839706
 0.244608 c 11 9 1441 903 bf 12 9 1452 903 bf 0.777451 0.791422 0.0796569 c 11 9 1464 903 bf 0.4 0.807843 0.352941 c 12 9 1475 903 bf 11 9 1487 903 bf 0.29326 0.785539 0.529779 c 11 9 1498 903 bf 0.4 0.807843 0.352941 c 12 9 1509 903 bf 0.18652
 0.763235 0.706618 c 11 9 1521 903 bf 11 9 1532 903 bf 0.0906863 0.594608 0.78125 c 12 9 1543 903 bf 0.18652 0.763235 0.706618 c 11 9 1555 903 bf 0.0906863 0.594608 0.78125 c 11 9 1566 903 bf 12 9 1577 903 bf 0.0428922 0.365196 0.687255 c 11 9 1589
 903 bf 11 9 1600 903 bf 12 9 1611 903 bf 0.0281863 0.253431 0.604902 c 11 9 1623 903 bf 11 9 1634 903 bf 0.0158128 0.151803 0.524225 c 12 9 1645 903 bf 11 9 1657 903 bf 11 9 1668 903 bf 12 9 1679 903 bf 0.00759013 0.0728653 0.45351 c 11 9 1691 903
 bf 0.0158128 0.151803 0.524225 c 12 9 1702 903 bf 0.00759013 0.0728653 0.45351 c 11 9 1714 903 bf 11 9 1725 903 bf 12 9 1736 903 bf 11 9 1748 903 bf 12 9 1770 903 bf 11 9 1782 903 bf 11 9 1793 903 bf 12 9 1804 903 bf 11 9 1816 903 bf 11 9 1850 903
 bf 11 9 1941 903 bf 11 10 579 912 bf 12 10 601 912 bf 0.0158128 0.151803 0.524225 c 11 10 613 912 bf 11 10 624 912 bf 0.0281863 0.253431 0.604902 c 12 10 635 912 bf 0.0428922 0.365196 0.687255 c 11 10 647 912 bf 0.0588235 0.486275 0.776471 c 11 10
 658 912 bf 12 10 669 912 bf 0.122549 0.702941 0.786029 c 11 10 681 912 bf 0.18652 0.763235 0.706618 c 11 10 692 912 bf 12 10 703 912 bf 0.122549 0.702941 0.786029 c 11 10 715 912 bf 0.29326 0.785539 0.529779 c 11 10 726 912 bf 0.549755 0.839706
 0.244608 c 12 10 737 912 bf 0.4 0.807843 0.352941 c 11 10 749 912 bf 0.29326 0.785539 0.529779 c 11 10 760 912 bf 0.4 0.807843 0.352941 c 12 10 771 912 bf 0.549755 0.839706 0.244608 c 11 10 783 912 bf 0.18652 0.763235 0.706618 c 12 10 794 912 bf 0.4
 0.807843 0.352941 c 11 10 806 912 bf 11 10 817 912 bf 0.777451 0.791422 0.0796569 c 12 10 828 912 bf 0.549755 0.839706 0.244608 c 11 10 840 912 bf 0.4 0.807843 0.352941 c 11 10 851 912 bf 0.68799 0.869118 0.144608 c 12 10 862 912 bf 11 10 874 912 bf
 11 10 885 912 bf 12 10 896 912 bf 0.777451 0.791422 0.0796569 c 11 10 908 912 bf 0.4 0.807843 0.352941 c 11 10 919 912 bf 0.68799 0.869118 0.144608 c 12 10 930 912 bf 0.777451 0.791422 0.0796569 c 11 10 942 912 bf 0.68799 0.869118 0.144608 c 11 10
 953 912 bf 0.815686 0.380392 0.0509804 c 12 10 964 912 bf 0.68799 0.869118 0.144608 c 11 10 976 912 bf 0.777451 0.791422 0.0796569 c 11 10 987 912 bf 0.815686 0.380392 0.0509804 c 12 10 998 912 bf 0.796569 0.585907 0.0653186 c 11 10 1010 912 bf
 0.68799 0.869118 0.144608 c 12 10 1021 912 bf 0.549755 0.839706 0.244608 c 11 10 1033 912 bf 0.777451 0.791422 0.0796569 c 11 10 1044 912 bf 0.4 0.807843 0.352941 c 12 10 1055 912 bf 0.796569 0.585907 0.0653186 c 11 10 1067 912 bf 0.777451 0.791422
 0.0796569 c 11 10 1078 912 bf 0.68799 0.869118 0.144608 c 12 10 1089 912 bf 11 10 1101 912 bf 0.549755 0.839706 0.244608 c 11 10 1112 912 bf 0.815686 0.380392 0.0509804 c 12 10 1123 912 bf 0.777451 0.791422 0.0796569 c 11 10 1135 912 bf 11 10 1146
 912 bf 12 10 1157 912 bf 0.549755 0.839706 0.244608 c 11 10 1169 912 bf 0.68799 0.869118 0.144608 c 11 10 1180 912 bf 0.777451 0.791422 0.0796569 c 12 10 1191 912 bf 0.549755 0.839706 0.244608 c 11 10 1203 912 bf 11 10 1214 912 bf 12 10 1225 912 bf
 0.796569 0.585907 0.0653186 c 11 10 1237 912 bf 12 10 1248 912 bf 0.777451 0.791422 0.0796569 c 11 10 1260 912 bf 0.4 0.807843 0.352941 c 11 10 1271 912 bf 0.68799 0.869118 0.144608 c 12 10 1282 912 bf 0.802451 0.261275 0.0436275 c 11 10 1294 912 bf
 0.796569 0.585907 0.0653186 c 11 10 1305 912 bf 0.777451 0.791422 0.0796569 c 12 10 1316 912 bf 0.549755 0.839706 0.244608 c 11 10 1328 912 bf 0.796569 0.585907 0.0653186 c 11 10 1339 912 bf 0.777451 0.791422 0.0796569 c 12 10 1350 912 bf 0.68799
 0.869118 0.144608 c 11 10 1362 912 bf 0.777451 0.791422 0.0796569 c 11 10 1373 912 bf 0.802451 0.261275 0.0436275 c 12 10 1384 912 bf 0.68799 0.869118 0.144608 c 11 10 1396 912 bf 0.4 0.807843 0.352941 c 11 10 1407 912 bf 0.29326 0.785539 0.529779 c
 12 10 1418 912 bf 0.777451 0.791422 0.0796569 c 11 10 1430 912 bf 0.68799 0.869118 0.144608 c 11 10 1441 912 bf 0.29326 0.785539 0.529779 c 12 10 1452 912 bf 0.549755 0.839706 0.244608 c 11 10 1464 912 bf 0.29326 0.785539 0.529779 c 12 10 1475 912
 bf 0.4 0.807843 0.352941 c 11 10 1487 912 bf 0.549755 0.839706 0.244608 c 11 10 1498 912 bf 0.18652 0.763235 0.706618 c 12 10 1509 912 bf 0.29326 0.785539 0.529779 c 11 10 1521 912 bf 0.18652 0.763235 0.706618 c 11 10 1532 912 bf 0.122549 0.702941
 0.786029 c 12 10 1543 912 bf 0.29326 0.785539 0.529779 c 11 10 1555 912 bf 0.0588235 0.486275 0.776471 c 11 10 1566 912 bf 0.122549 0.702941 0.786029 c 12 10 1577 912 bf 0.0588235 0.486275 0.776471 c 11 10 1589 912 bf 0.0906863 0.594608 0.78125 c 11
 10 1600 912 bf 0.0588235 0.486275 0.776471 c 12 10 1611 912 bf 0.0428922 0.365196 0.687255 c 11 10 1623 912 bf 0.0281863 0.253431 0.604902 c 11 10 1634 912 bf 12 10 1645 912 bf 0.0158128 0.151803 0.524225 c 11 10 1657 912 bf 0.0281863 0.253431
 0.604902 c 11 10 1668 912 bf 0.0158128 0.151803 0.524225 c 12 10 1679 912 bf 0.0281863 0.253431 0.604902 c 11 10 1691 912 bf 0.00759013 0.0728653 0.45351 c 12 10 1702 912 bf 11 10 1714 912 bf 11 10 1725 912 bf 11 10 1748 912 bf 11 10 1759 912 bf 12
 10 1770 912 bf 11 10 1782 912 bf 11 10 1793 912 bf 11 10 1827 912 bf 12 10 1838 912 bf 11 10 1884 912 bf 11 10 579 922 bf 12 10 601 922 bf 0.0158128 0.151803 0.524225 c 11 10 613 922 bf 0.0281863 0.253431 0.604902 c 11 10 624 922 bf 12 10 635 922 bf
 11 10 647 922 bf 0.0588235 0.486275 0.776471 c 11 10 658 922 bf 0.0906863 0.594608 0.78125 c 12 10 669 922 bf 0.122549 0.702941 0.786029 c 11 10 681 922 bf 0.18652 0.763235 0.706618 c 11 10 692 922 bf 0.0906863 0.594608 0.78125 c 12 10 703 922 bf
 0.122549 0.702941 0.786029 c 11 10 715 922 bf 0.18652 0.763235 0.706618 c 11 10 726 922 bf 0.29326 0.785539 0.529779 c 12 10 737 922 bf 0.4 0.807843 0.352941 c 11 10 749 922 bf 0.29326 0.785539 0.529779 c 11 10 760 922 bf 0.18652 0.763235 0.706618 c
 12 10 771 922 bf 0.549755 0.839706 0.244608 c 11 10 783 922 bf 0.18652 0.763235 0.706618 c 12 10 794 922 bf 11 10 806 922 bf 0.549755 0.839706 0.244608 c 11 10 817 922 bf 0.4 0.807843 0.352941 c 12 10 828 922 bf 11 10 840 922 bf 11 10 851 922 bf
 0.549755 0.839706 0.244608 c 12 10 862 922 bf 0.4 0.807843 0.352941 c 11 10 874 922 bf 11 10 885 922 bf 12 10 896 922 bf 0.68799 0.869118 0.144608 c 11 10 908 922 bf 0.777451 0.791422 0.0796569 c 11 10 919 922 bf 0.796569 0.585907 0.0653186 c 12 10
 930 922 bf 0.29326 0.785539 0.529779 c 11 10 942 922 bf 0.777451 0.791422 0.0796569 c 11 10 953 922 bf 0.68799 0.869118 0.144608 c 12 10 964 922 bf 0.4 0.807843 0.352941 c 11 10 976 922 bf 0.68799 0.869118 0.144608 c 11 10 987 922 bf 0.4 0.807843
 0.352941 c 12 10 998 922 bf 0.777451 0.791422 0.0796569 c 11 10 1010 922 bf 0.4 0.807843 0.352941 c 12 10 1021 922 bf 0.29326 0.785539 0.529779 c 11 10 1033 922 bf 0.68799 0.869118 0.144608 c 11 10 1044 922 bf 0.796569 0.585907 0.0653186 c 12 10
 1055 922 bf 0.802451 0.261275 0.0436275 c 11 10 1067 922 bf 0.796569 0.585907 0.0653186 c 11 10 1078 922 bf 0.68799 0.869118 0.144608 c 12 10 1089 922 bf 11 10 1101 922 bf 0.815686 0.380392 0.0509804 c 11 10 1112 922 bf 0.549755 0.839706 0.244608 c
 12 10 1123 922 bf 0.777451 0.791422 0.0796569 c 11 10 1135 922 bf 11 10 1146 922 bf 0.802451 0.261275 0.0436275 c 12 10 1157 922 bf 0.777451 0.791422 0.0796569 c 11 10 1169 922 bf 0.796569 0.585907 0.0653186 c 11 10 1180 922 bf 0.802451 0.261275
 0.0436275 c 12 10 1191 922 bf 0.4 0.807843 0.352941 c 11 10 1203 922 bf 0.68799 0.869118 0.144608 c 11 10 1214 922 bf 12 10 1225 922 bf 0.796569 0.585907 0.0653186 c 11 10 1237 922 bf 0.777451 0.791422 0.0796569 c 12 10 1248 922 bf 0.4 0.807843
 0.352941 c 11 10 1260 922 bf 11 10 1271 922 bf 0.796569 0.585907 0.0653186 c 12 10 1282 922 bf 11 10 1294 922 bf 0.549755 0.839706 0.244608 c 11 10 1305 922 bf 0.68799 0.869118 0.144608 c 12 10 1316 922 bf 11 10 1328 922 bf 0.815686 0.380392
 0.0509804 c 11 10 1339 922 bf 0.777451 0.791422 0.0796569 c 12 10 1350 922 bf 0.29326 0.785539 0.529779 c 11 10 1362 922 bf 0.777451 0.791422 0.0796569 c 11 10 1373 922 bf 12 10 1384 922 bf 0.796569 0.585907 0.0653186 c 11 10 1396 922 bf 0.4
 0.807843 0.352941 c 11 10 1407 922 bf 0.68799 0.869118 0.144608 c 12 10 1418 922 bf 0.777451 0.791422 0.0796569 c 11 10 1430 922 bf 0.549755 0.839706 0.244608 c 11 10 1441 922 bf 0.29326 0.785539 0.529779 c 12 10 1452 922 bf 0.549755 0.839706
 0.244608 c 11 10 1464 922 bf 0.4 0.807843 0.352941 c 12 10 1475 922 bf 0.29326 0.785539 0.529779 c 11 10 1487 922 bf 0.122549 0.702941 0.786029 c 11 10 1498 922 bf 0.29326 0.785539 0.529779 c 12 10 1509 922 bf 0.4 0.807843 0.352941 c 11 10 1521 922
 bf 0.0906863 0.594608 0.78125 c 11 10 1532 922 bf 0.29326 0.785539 0.529779 c 12 10 1543 922 bf 0.0906863 0.594608 0.78125 c 11 10 1555 922 bf 0.0428922 0.365196 0.687255 c 11 10 1566 922 bf 0.0588235 0.486275 0.776471 c 12 10 1577 922 bf 0.0281863
 0.253431 0.604902 c 11 10 1589 922 bf 0.0428922 0.365196 0.687255 c 11 10 1600 922 bf 0.0281863 0.253431 0.604902 c 12 10 1611 922 bf 11 10 1623 922 bf 11 10 1634 922 bf 0.0158128 0.151803 0.524225 c 12 10 1645 922 bf 11 10 1657 922 bf 0.00759013
 0.0728653 0.45351 c 11 10 1668 922 bf 0.0281863 0.253431 0.604902 c 12 10 1679 922 bf 11 10 1691 922 bf 0.0158128 0.151803 0.524225 c 12 10 1702 922 bf 0.00759013 0.0728653 0.45351 c 11 10 1714 922 bf 11 10 1725 922 bf 12 10 1736 922 bf 11 10 1748
 922 bf 11 10 1759 922 bf 12 10 1770 922 bf 11 10 1793 922 bf 12 10 1804 922 bf 11 10 1850 922 bf 11 10 1895 922 bf 11 10 579 932 bf 11 10 590 932 bf 12 10 601 932 bf 0.0158128 0.151803 0.524225 c 11 10 613 932 bf 0.0281863 0.253431 0.604902 c 11 10
 624 932 bf 12 10 635 932 bf 0.0428922 0.365196 0.687255 c 11 10 647 932 bf 0.0906863 0.594608 0.78125 c 11 10 658 932 bf 12 10 669 932 bf 0.18652 0.763235 0.706618 c 11 10 681 932 bf 11 10 692 932 bf 12 10 703 932 bf 11 10 715 932 bf 0.4 0.807843
 0.352941 c 11 10 726 932 bf 0.29326 0.785539 0.529779 c 12 10 737 932 bf 11 10 749 932 bf 0.122549 0.702941 0.786029 c 11 10 760 932 bf 0.4 0.807843 0.352941 c 12 10 771 932 bf 11 10 783 932 bf 12 10 794 932 bf 0.549755 0.839706 0.244608 c 11 10 806
 932 bf 0.29326 0.785539 0.529779 c 11 10 817 932 bf 12 10 828 932 bf 0.549755 0.839706 0.244608 c 11 10 840 932 bf 0.4 0.807843 0.352941 c 11 10 851 932 bf 0.122549 0.702941 0.786029 c 12 10 862 932 bf 0.796569 0.585907 0.0653186 c 11 10 874 932 bf
 0.549755 0.839706 0.244608 c 11 10 885 932 bf 0.777451 0.791422 0.0796569 c 12 10 896 932 bf 0.68799 0.869118 0.144608 c 11 10 908 932 bf 0.549755 0.839706 0.244608 c 11 10 919 932 bf 0.4 0.807843 0.352941 c 12 10 930 932 bf 0.68799 0.869118
 0.144608 c 11 10 942 932 bf 0.549755 0.839706 0.244608 c 11 10 953 932 bf 0.777451 0.791422 0.0796569 c 12 10 964 932 bf 0.549755 0.839706 0.244608 c 11 10 976 932 bf 11 10 987 932 bf 0.68799 0.869118 0.144608 c 12 10 998 932 bf 0.4 0.807843
 0.352941 c 11 10 1010 932 bf 0.68799 0.869118 0.144608 c 12 10 1021 932 bf 0.549755 0.839706 0.244608 c 11 10 1033 932 bf 0.29326 0.785539 0.529779 c 11 10 1044 932 bf 0.4 0.807843 0.352941 c 12 10 1055 932 bf 0.68799 0.869118 0.144608 c 11 10 1067
 932 bf 0.777451 0.791422 0.0796569 c 11 10 1078 932 bf 0.4 0.807843 0.352941 c 12 10 1089 932 bf 0.777451 0.791422 0.0796569 c 11 10 1101 932 bf 0.549755 0.839706 0.244608 c 11 10 1112 932 bf 0.68799 0.869118 0.144608 c 12 10 1123 932 bf 0.777451
 0.791422 0.0796569 c 11 10 1135 932 bf 0.68799 0.869118 0.144608 c 11 10 1146 932 bf 12 10 1157 932 bf 0.815686 0.380392 0.0509804 c 11 10 1169 932 bf 0.549755 0.839706 0.244608 c 11 10 1180 932 bf 12 10 1191 932 bf 0.802451 0.261275 0.0436275 c 11
 10 1203 932 bf 0.777451 0.791422 0.0796569 c 11 10 1214 932 bf 0.815686 0.380392 0.0509804 c 12 10 1225 932 bf 0.796569 0.585907 0.0653186 c 11 10 1237 932 bf 0.549755 0.839706 0.244608 c 12 10 1248 932 bf 0.68799 0.869118 0.144608 c 11 10 1260 932
 bf 0.4 0.807843 0.352941 c 11 10 1271 932 bf 0.815686 0.380392 0.0509804 c 12 10 1282 932 bf 0.68799 0.869118 0.144608 c 11 10 1294 932 bf 0.815686 0.380392 0.0509804 c 11 10 1305 932 bf 0.777451 0.791422 0.0796569 c 12 10 1316 932 bf 11 10 1328 932
 bf 0.549755 0.839706 0.244608 c 11 10 1339 932 bf 12 10 1350 932 bf 0.777451 0.791422 0.0796569 c 11 10 1362 932 bf 11 10 1373 932 bf 0.796569 0.585907 0.0653186 c 12 10 1384 932 bf 0.68799 0.869118 0.144608 c 11 10 1396 932 bf 0.549755 0.839706
 0.244608 c 11 10 1407 932 bf 0.29326 0.785539 0.529779 c 12 10 1418 932 bf 0.68799 0.869118 0.144608 c 11 10 1430 932 bf 0.549755 0.839706 0.244608 c 11 10 1441 932 bf 0.68799 0.869118 0.144608 c 12 10 1452 932 bf 0.18652 0.763235 0.706618 c 11 10
 1464 932 bf 0.4 0.807843 0.352941 c 12 10 1475 932 bf 0.549755 0.839706 0.244608 c 11 10 1487 932 bf 0.18652 0.763235 0.706618 c 11 10 1498 932 bf 0.29326 0.785539 0.529779 c 12 10 1509 932 bf 0.4 0.807843 0.352941 c 11 10 1521 932 bf 0.0588235
 0.486275 0.776471 c 11 10 1532 932 bf 0.0906863 0.594608 0.78125 c 12 10 1543 932 bf 0.122549 0.702941 0.786029 c 11 10 1555 932 bf 0.0588235 0.486275 0.776471 c 11 10 1566 932 bf 0.0428922 0.365196 0.687255 c 12 10 1577 932 bf 11 10 1589 932 bf
 0.0588235 0.486275 0.776471 c 11 10 1600 932 bf 0.0281863 0.253431 0.604902 c 12 10 1611 932 bf 0.0158128 0.151803 0.524225 c 11 10 1623 932 bf 11 10 1634 932 bf 0.0281863 0.253431 0.604902 c 12 10 1645 932 bf 0.00759013 0.0728653 0.45351 c 11 10
 1657 932 bf 0.0158128 0.151803 0.524225 c 11 10 1668 932 bf 12 10 1679 932 bf 11 10 1691 932 bf 12 10 1702 932 bf 0.00759013 0.0728653 0.45351 c 11 10 1714 932 bf 11 10 1725 932 bf 12 10 1736 932 bf 12 10 1770 932 bf 11 10 1782 932 bf 11 10 1793 932
 bf 12 10 1804 932 bf 11 10 1827 932 bf 11 10 1861 932 bf 12 10 1872 932 bf 11 10 1884 932 bf 11 10 1895 932 bf 11 10 1918 932 bf 12 10 1929 932 bf 12 9 601 942 bf 0.0158128 0.151803 0.524225 c 11 9 613 942 bf 11 9 624 942 bf 0.0281863 0.253431
 0.604902 c 12 9 635 942 bf 11 9 647 942 bf 0.0588235 0.486275 0.776471 c 11 9 658 942 bf 12 9 669 942 bf 0.18652 0.763235 0.706618 c 11 9 681 942 bf 0.122549 0.702941 0.786029 c 11 9 692 942 bf 12 9 703 942 bf 0.18652 0.763235 0.706618 c 11 9 715
 942 bf 11 9 726 942 bf 12 9 737 942 bf 0.549755 0.839706 0.244608 c 11 9 749 942 bf 0.29326 0.785539 0.529779 c 11 9 760 942 bf 0.4 0.807843 0.352941 c 12 9 771 942 bf 0.68799 0.869118 0.144608 c 11 9 783 942 bf 0.4 0.807843 0.352941 c 12 9 794 942
 bf 11 9 806 942 bf 0.549755 0.839706 0.244608 c 11 9 817 942 bf 12 9 828 942 bf 0.68799 0.869118 0.144608 c 11 9 840 942 bf 0.549755 0.839706 0.244608 c 11 9 851 942 bf 0.796569 0.585907 0.0653186 c 12 9 862 942 bf 0.549755 0.839706 0.244608 c 11 9
 874 942 bf 0.4 0.807843 0.352941 c 11 9 885 942 bf 0.549755 0.839706 0.244608 c 12 9 896 942 bf 11 9 908 942 bf 0.68799 0.869118 0.144608 c 11 9 919 942 bf 0.29326 0.785539 0.529779 c 12 9 930 942 bf 11 9 942 942 bf 0.549755 0.839706 0.244608 c 11 9
 953 942 bf 0.4 0.807843 0.352941 c 12 9 964 942 bf 0.549755 0.839706 0.244608 c 11 9 976 942 bf 11 9 987 942 bf 0.68799 0.869118 0.144608 c 12 9 998 942 bf 11 9 1010 942 bf 0.549755 0.839706 0.244608 c 12 9 1021 942 bf 0.777451 0.791422 0.0796569 c
 11 9 1033 942 bf 0.796569 0.585907 0.0653186 c 11 9 1044 942 bf 0.68799 0.869118 0.144608 c 12 9 1055 942 bf 0.4 0.807843 0.352941 c 11 9 1067 942 bf 0.796569 0.585907 0.0653186 c 11 9 1078 942 bf 12 9 1089 942 bf 11 9 1101 942 bf 0.777451 0.791422
 0.0796569 c 11 9 1112 942 bf 0.4 0.807843 0.352941 c 12 9 1123 942 bf 0.549755 0.839706 0.244608 c 11 9 1135 942 bf 0.815686 0.380392 0.0509804 c 11 9 1146 942 bf 0.68799 0.869118 0.144608 c 12 9 1157 942 bf 0.549755 0.839706 0.244608 c 11 9 1169
 942 bf 0.68799 0.869118 0.144608 c 11 9 1180 942 bf 0.4 0.807843 0.352941 c 12 9 1191 942 bf 0.68799 0.869118 0.144608 c 11 9 1203 942 bf 0.549755 0.839706 0.244608 c 11 9 1214 942 bf 0.68799 0.869118 0.144608 c 12 9 1225 942 bf 0.802451 0.261275
 0.0436275 c 11 9 1237 942 bf 0.815686 0.380392 0.0509804 c 12 9 1248 942 bf 0.68799 0.869118 0.144608 c 11 9 1260 942 bf 11 9 1271 942 bf 0.796569 0.585907 0.0653186 c 12 9 1282 942 bf 0.29326 0.785539 0.529779 c 11 9 1294 942 bf 0.796569 0.585907
 0.0653186 c 11 9 1305 942 bf 12 9 1316 942 bf 0.68799 0.869118 0.144608 c 11 9 1328 942 bf 11 9 1339 942 bf 0.777451 0.791422 0.0796569 c 12 9 1350 942 bf 0.796569 0.585907 0.0653186 c 11 9 1362 942 bf 11 9 1373 942 bf 12 9 1384 942 bf 0.4 0.807843
 0.352941 c 11 9 1396 942 bf 0.796569 0.585907 0.0653186 c 11 9 1407 942 bf 0.4 0.807843 0.352941 c 12 9 1418 942 bf 0.68799 0.869118 0.144608 c 11 9 1430 942 bf 11 9 1441 942 bf 0.29326 0.785539 0.529779 c 12 9 1452 942 bf 0.4 0.807843 0.352941 c 11
 9 1464 942 bf 0.29326 0.785539 0.529779 c 12 9 1475 942 bf 11 9 1487 942 bf 0.18652 0.763235 0.706618 c 11 9 1498 942 bf 0.122549 0.702941 0.786029 c 12 9 1509 942 bf 0.0906863 0.594608 0.78125 c 11 9 1521 942 bf 11 9 1532 942 bf 12 9 1543 942 bf 11
 9 1555 942 bf 0.0588235 0.486275 0.776471 c 11 9 1566 942 bf 12 9 1577 942 bf 11 9 1589 942 bf 0.0428922 0.365196 0.687255 c 11 9 1600 942 bf 0.0281863 0.253431 0.604902 c 12 9 1611 942 bf 0.00759013 0.0728653 0.45351 c 11 9 1623 942 bf 0.0158128
 0.151803 0.524225 c 11 9 1634 942 bf 0.0281863 0.253431 0.604902 c 12 9 1645 942 bf 0.0158128 0.151803 0.524225 c 11 9 1657 942 bf 0.0281863 0.253431 0.604902 c 11 9 1668 942 bf 12 9 1679 942 bf 0.0158128 0.151803 0.524225 c 11 9 1691 942 bf
 0.00759013 0.0728653 0.45351 c 12 9 1702 942 bf 11 9 1714 942 bf 0.0158128 0.151803 0.524225 c 11 9 1725 942 bf 0.00759013 0.0728653 0.45351 c 11 9 1759 942 bf 12 9 1770 942 bf 11 9 1782 942 bf 11 9 1793 942 bf 12 9 1804 942 bf 11 9 1895 942 bf 12 9
 1963 942 bf 12 10 601 951 bf 11 10 613 951 bf 0.0158128 0.151803 0.524225 c 11 10 624 951 bf 0.0428922 0.365196 0.687255 c 12 10 635 951 bf 0.0588235 0.486275 0.776471 c 11 10 647 951 bf 0.0906863 0.594608 0.78125 c 11 10 658 951 bf 0.0588235
 0.486275 0.776471 c 12 10 669 951 bf 0.0906863 0.594608 0.78125 c 11 10 681 951 bf 0.18652 0.763235 0.706618 c 11 10 692 951 bf 12 10 703 951 bf 0.4 0.807843 0.352941 c 11 10 715 951 bf 0.0906863 0.594608 0.78125 c 11 10 726 951 bf 0.29326 0.785539
 0.529779 c 12 10 737 951 bf 0.4 0.807843 0.352941 c 11 10 749 951 bf 0.122549 0.702941 0.786029 c 11 10 760 951 bf 0.4 0.807843 0.352941 c 12 10 771 951 bf 0.549755 0.839706 0.244608 c 11 10 783 951 bf 0.777451 0.791422 0.0796569 c 12 10 794 951 bf
 0.122549 0.702941 0.786029 c 11 10 806 951 bf 0.29326 0.785539 0.529779 c 11 10 817 951 bf 12 10 828 951 bf 0.549755 0.839706 0.244608 c 11 10 840 951 bf 0.29326 0.785539 0.529779 c 11 10 851 951 bf 12 10 862 951 bf 0.4 0.807843 0.352941 c 11 10 874
 951 bf 11 10 885 951 bf 12 10 896 951 bf 0.549755 0.839706 0.244608 c 11 10 908 951 bf 0.796569 0.585907 0.0653186 c 11 10 919 951 bf 0.4 0.807843 0.352941 c 12 10 930 951 bf 0.29326 0.785539 0.529779 c 11 10 942 951 bf 0.815686 0.380392 0.0509804 c
 11 10 953 951 bf 0.777451 0.791422 0.0796569 c 12 10 964 951 bf 0.29326 0.785539 0.529779 c 11 10 976 951 bf 0.549755 0.839706 0.244608 c 11 10 987 951 bf 0.796569 0.585907 0.0653186 c 12 10 998 951 bf 0.777451 0.791422 0.0796569 c 11 10 1010 951 bf
 0.549755 0.839706 0.244608 c 12 10 1021 951 bf 0.4 0.807843 0.352941 c 11 10 1033 951 bf 0.796569 0.585907 0.0653186 c 11 10 1044 951 bf 0.815686 0.380392 0.0509804 c 12 10 1055 951 bf 11 10 1067 951 bf 11 10 1078 951 bf 0.796569 0.585907 0.0653186
 c 12 10 1089 951 bf 0.68799 0.869118 0.144608 c 11 10 1101 951 bf 0.777451 0.791422 0.0796569 c 11 10 1112 951 bf 0.68799 0.869118 0.144608 c 12 10 1123 951 bf 0.4 0.807843 0.352941 c 11 10 1135 951 bf 0.815686 0.380392 0.0509804 c 11 10 1146 951 bf
 0.4 0.807843 0.352941 c 12 10 1157 951 bf 0.815686 0.380392 0.0509804 c 11 10 1169 951 bf 0.68799 0.869118 0.144608 c 11 10 1180 951 bf 0.777451 0.791422 0.0796569 c 12 10 1191 951 bf 0.549755 0.839706 0.244608 c 11 10 1203 951 bf 0.68799 0.869118
 0.144608 c 11 10 1214 951 bf 0.4 0.807843 0.352941 c 12 10 1225 951 bf 0.68799 0.869118 0.144608 c 11 10 1237 951 bf 0.549755 0.839706 0.244608 c 12 10 1248 951 bf 0.4 0.807843 0.352941 c 11 10 1260 951 bf 0.796569 0.585907 0.0653186 c 11 10 1271
 951 bf 0.815686 0.380392 0.0509804 c 12 10 1282 951 bf 0.68799 0.869118 0.144608 c 11 10 1294 951 bf 0.549755 0.839706 0.244608 c 11 10 1305 951 bf 0.68799 0.869118 0.144608 c 12 10 1316 951 bf 0.796569 0.585907 0.0653186 c 11 10 1328 951 bf
 0.549755 0.839706 0.244608 c 11 10 1339 951 bf 0.796569 0.585907 0.0653186 c 12 10 1350 951 bf 0.815686 0.380392 0.0509804 c 11 10 1362 951 bf 0.796569 0.585907 0.0653186 c 11 10 1373 951 bf 0.777451 0.791422 0.0796569 c 12 10 1384 951 bf 11 10 1396
 951 bf 0.68799 0.869118 0.144608 c 11 10 1407 951 bf 0.29326 0.785539 0.529779 c 12 10 1418 951 bf 0.796569 0.585907 0.0653186 c 11 10 1430 951 bf 0.4 0.807843 0.352941 c 11 10 1441 951 bf 0.68799 0.869118 0.144608 c 12 10 1452 951 bf 0.29326
 0.785539 0.529779 c 11 10 1464 951 bf 0.777451 0.791422 0.0796569 c 12 10 1475 951 bf 0.18652 0.763235 0.706618 c 11 10 1487 951 bf 0.4 0.807843 0.352941 c 11 10 1498 951 bf 0.122549 0.702941 0.786029 c 12 10 1509 951 bf 11 10 1521 951 bf 0.0588235
 0.486275 0.776471 c 11 10 1532 951 bf 0.122549 0.702941 0.786029 c 12 10 1543 951 bf 0.0588235 0.486275 0.776471 c 11 10 1555 951 bf 0.0906863 0.594608 0.78125 c 11 10 1566 951 bf 12 10 1577 951 bf 0.0588235 0.486275 0.776471 c 11 10 1589 951 bf
 0.0428922 0.365196 0.687255 c 11 10 1600 951 bf 0.0281863 0.253431 0.604902 c 12 10 1611 951 bf 0.0158128 0.151803 0.524225 c 11 10 1623 951 bf 0.00759013 0.0728653 0.45351 c 11 10 1634 951 bf 0.0281863 0.253431 0.604902 c 12 10 1645 951 bf
 0.0158128 0.151803 0.524225 c 11 10 1657 951 bf 11 10 1668 951 bf 12 10 1679 951 bf 0.00759013 0.0728653 0.45351 c 11 10 1691 951 bf 12 10 1702 951 bf 11 10 1714 951 bf 11 10 1725 951 bf 12 10 1736 951 bf 11 10 1748 951 bf 11 10 1759 951 bf 12 10
 1770 951 bf 11 10 1793 951 bf 11 10 1827 951 bf 11 10 1861 951 bf 11 10 1884 951 bf 12 10 1906 951 bf 11 10 1952 951 bf 11 10 590 961 bf 12 10 601 961 bf 0.0158128 0.151803 0.524225 c 11 10 613 961 bf 0.0281863 0.253431 0.604902 c 11 10 624 961 bf
 0.0428922 0.365196 0.687255 c 12 10 635 961 bf 11 10 647 961 bf 0.0906863 0.594608 0.78125 c 11 10 658 961 bf 12 10 669 961 bf 11 10 681 961 bf 0.18652 0.763235 0.706618 c 11 10 692 961 bf 0.122549 0.702941 0.786029 c 12 10 703 961 bf 11 10 715 961
 bf 0.18652 0.763235 0.706618 c 11 10 726 961 bf 0.4 0.807843 0.352941 c 12 10 737 961 bf 0.18652 0.763235 0.706618 c 11 10 749 961 bf 0.122549 0.702941 0.786029 c 11 10 760 961 bf 0.29326 0.785539 0.529779 c 12 10 771 961 bf 0.549755 0.839706
 0.244608 c 11 10 783 961 bf 0.4 0.807843 0.352941 c 12 10 794 961 bf 0.68799 0.869118 0.144608 c 11 10 806 961 bf 0.29326 0.785539 0.529779 c 11 10 817 961 bf 0.549755 0.839706 0.244608 c 12 10 828 961 bf 0.29326 0.785539 0.529779 c 11 10 840 961 bf
 11 10 851 961 bf 0.4 0.807843 0.352941 c 12 10 862 961 bf 0.549755 0.839706 0.244608 c 11 10 874 961 bf 11 10 885 961 bf 0.4 0.807843 0.352941 c 12 10 896 961 bf 0.68799 0.869118 0.144608 c 11 10 908 961 bf 11 10 919 961 bf 0.549755 0.839706
 0.244608 c 12 10 930 961 bf 0.29326 0.785539 0.529779 c 11 10 942 961 bf 0.68799 0.869118 0.144608 c 11 10 953 961 bf 12 10 964 961 bf 11 10 976 961 bf 0.29326 0.785539 0.529779 c 11 10 987 961 bf 0.68799 0.869118 0.144608 c 12 10 998 961 bf
 0.549755 0.839706 0.244608 c 11 10 1010 961 bf 12 10 1021 961 bf 0.68799 0.869118 0.144608 c 11 10 1033 961 bf 0.549755 0.839706 0.244608 c 11 10 1044 961 bf 12 10 1055 961 bf 0.4 0.807843 0.352941 c 11 10 1067 961 bf 0.68799 0.869118 0.144608 c 11
 10 1078 961 bf 0.815686 0.380392 0.0509804 c 12 10 1089 961 bf 0.68799 0.869118 0.144608 c 11 10 1101 961 bf 11 10 1112 961 bf 12 10 1123 961 bf 11 10 1135 961 bf 0.796569 0.585907 0.0653186 c 11 10 1146 961 bf 0.68799 0.869118 0.144608 c 12 10 1157
 961 bf 0.549755 0.839706 0.244608 c 11 10 1169 961 bf 0.796569 0.585907 0.0653186 c 11 10 1180 961 bf 0.549755 0.839706 0.244608 c 12 10 1191 961 bf 0.796569 0.585907 0.0653186 c 11 10 1203 961 bf 0.68799 0.869118 0.144608 c 11 10 1214 961 bf
 0.777451 0.791422 0.0796569 c 12 10 1225 961 bf 0.549755 0.839706 0.244608 c 11 10 1237 961 bf 0.777451 0.791422 0.0796569 c 12 10 1248 961 bf 0.18652 0.763235 0.706618 c 11 10 1260 961 bf 0.549755 0.839706 0.244608 c 11 10 1271 961 bf 12 10 1282
 961 bf 0.777451 0.791422 0.0796569 c 11 10 1294 961 bf 0.4 0.807843 0.352941 c 11 10 1305 961 bf 0.777451 0.791422 0.0796569 c 12 10 1316 961 bf 11 10 1328 961 bf 0.796569 0.585907 0.0653186 c 11 10 1339 961 bf 0.549755 0.839706 0.244608 c 12 10
 1350 961 bf 0.777451 0.791422 0.0796569 c 11 10 1362 961 bf 11 10 1373 961 bf 12 10 1384 961 bf 11 10 1396 961 bf 0.549755 0.839706 0.244608 c 11 10 1407 961 bf 12 10 1418 961 bf 0.68799 0.869118 0.144608 c 11 10 1430 961 bf 0.4 0.807843 0.352941 c
 11 10 1441 961 bf 0.549755 0.839706 0.244608 c 12 10 1452 961 bf 0.777451 0.791422 0.0796569 c 11 10 1464 961 bf 0.549755 0.839706 0.244608 c 12 10 1475 961 bf 0.122549 0.702941 0.786029 c 11 10 1487 961 bf 0.68799 0.869118 0.144608 c 11 10 1498 961
 bf 0.29326 0.785539 0.529779 c 12 10 1509 961 bf 0.0906863 0.594608 0.78125 c 11 10 1521 961 bf 0.0588235 0.486275 0.776471 c 11 10 1532 961 bf 0.122549 0.702941 0.786029 c 12 10 1543 961 bf 0.0588235 0.486275 0.776471 c 11 10 1555 961 bf 0.18652
 0.763235 0.706618 c 11 10 1566 961 bf 0.0906863 0.594608 0.78125 c 12 10 1577 961 bf 0.18652 0.763235 0.706618 c 11 10 1589 961 bf 0.0281863 0.253431 0.604902 c 11 10 1600 961 bf 0.0428922 0.365196 0.687255 c 12 10 1611 961 bf 0.0281863 0.253431
 0.604902 c 11 10 1623 961 bf 11 10 1634 961 bf 12 10 1645 961 bf 0.0158128 0.151803 0.524225 c 11 10 1657 961 bf 11 10 1668 961 bf 0.0281863 0.253431 0.604902 c 12 10 1679 961 bf 0.00759013 0.0728653 0.45351 c 11 10 1691 961 bf 0.0158128 0.151803
 0.524225 c 12 10 1702 961 bf 0.00759013 0.0728653 0.45351 c 11 10 1714 961 bf 11 10 1725 961 bf 12 10 1736 961 bf 11 10 1748 961 bf 11 10 1759 961 bf 12 10 1770 961 bf 11 10 1827 961 bf 12 10 1838 961 bf 12 10 1872 961 bf 11 10 1884 961 bf 11 10
 1895 961 bf 11 10 1952 961 bf 12 10 567 971 bf 11 10 579 971 bf 11 10 590 971 bf 12 10 601 971 bf 11 10 613 971 bf 11 10 624 971 bf 0.0428922 0.365196 0.687255 c 12 10 635 971 bf 11 10 647 971 bf 0.0588235 0.486275 0.776471 c 11 10 658 971 bf
 0.0281863 0.253431 0.604902 c 12 10 669 971 bf 0.0906863 0.594608 0.78125 c 11 10 681 971 bf 0.4 0.807843 0.352941 c 11 10 692 971 bf 0.18652 0.763235 0.706618 c 12 10 703 971 bf 0.0588235 0.486275 0.776471 c 11 10 715 971 bf 0.18652 0.763235
 0.706618 c 11 10 726 971 bf 0.549755 0.839706 0.244608 c 12 10 737 971 bf 0.4 0.807843 0.352941 c 11 10 749 971 bf 0.18652 0.763235 0.706618 c 11 10 760 971 bf 0.549755 0.839706 0.244608 c 12 10 771 971 bf 0.29326 0.785539 0.529779 c 11 10 783 971
 bf 12 10 794 971 bf 0.4 0.807843 0.352941 c 11 10 806 971 bf 0.68799 0.869118 0.144608 c 11 10 817 971 bf 0.796569 0.585907 0.0653186 c 12 10 828 971 bf 0.18652 0.763235 0.706618 c 11 10 840 971 bf 0.4 0.807843 0.352941 c 11 10 851 971 bf 0.18652
 0.763235 0.706618 c 12 10 862 971 bf 0.777451 0.791422 0.0796569 c 11 10 874 971 bf 0.68799 0.869118 0.144608 c 11 10 885 971 bf 0.4 0.807843 0.352941 c 12 10 896 971 bf 0.68799 0.869118 0.144608 c 11 10 908 971 bf 11 10 919 971 bf 0.777451 0.791422
 0.0796569 c 12 10 930 971 bf 0.4 0.807843 0.352941 c 11 10 942 971 bf 0.777451 0.791422 0.0796569 c 11 10 953 971 bf 0.68799 0.869118 0.144608 c 12 10 964 971 bf 0.549755 0.839706 0.244608 c 11 10 976 971 bf 11 10 987 971 bf 12 10 998 971 bf 0.68799
 0.869118 0.144608 c 11 10 1010 971 bf 12 10 1021 971 bf 0.777451 0.791422 0.0796569 c 11 10 1033 971 bf 0.68799 0.869118 0.144608 c 11 10 1044 971 bf 0.796569 0.585907 0.0653186 c 12 10 1055 971 bf 11 10 1067 971 bf 0.68799 0.869118 0.144608 c 11 10
 1078 971 bf 0.796569 0.585907 0.0653186 c 12 10 1089 971 bf 0.68799 0.869118 0.144608 c 11 10 1101 971 bf 11 10 1112 971 bf 12 10 1123 971 bf 11 10 1135 971 bf 11 10 1146 971 bf 0.777451 0.791422 0.0796569 c 12 10 1157 971 bf 11 10 1169 971 bf 11 10
 1180 971 bf 0.796569 0.585907 0.0653186 c 12 10 1191 971 bf 0.4 0.807843 0.352941 c 11 10 1203 971 bf 0.777451 0.791422 0.0796569 c 11 10 1214 971 bf 0.4 0.807843 0.352941 c 12 10 1225 971 bf 0.549755 0.839706 0.244608 c 11 10 1237 971 bf 0.777451
 0.791422 0.0796569 c 12 10 1248 971 bf 11 10 1260 971 bf 0.549755 0.839706 0.244608 c 11 10 1271 971 bf 12 10 1282 971 bf 11 10 1294 971 bf 0.4 0.807843 0.352941 c 11 10 1305 971 bf 0.68799 0.869118 0.144608 c 12 10 1316 971 bf 0.777451 0.791422
 0.0796569 c 11 10 1328 971 bf 0.68799 0.869118 0.144608 c 11 10 1339 971 bf 0.777451 0.791422 0.0796569 c 12 10 1350 971 bf 0.68799 0.869118 0.144608 c 11 10 1362 971 bf 0.796569 0.585907 0.0653186 c 11 10 1373 971 bf 0.4 0.807843 0.352941 c 12 10
 1384 971 bf 0.777451 0.791422 0.0796569 c 11 10 1396 971 bf 0.68799 0.869118 0.144608 c 11 10 1407 971 bf 0.777451 0.791422 0.0796569 c 12 10 1418 971 bf 0.549755 0.839706 0.244608 c 11 10 1430 971 bf 0.4 0.807843 0.352941 c 11 10 1441 971 bf 12 10
 1452 971 bf 0.68799 0.869118 0.144608 c 11 10 1464 971 bf 0.549755 0.839706 0.244608 c 12 10 1475 971 bf 11 10 1487 971 bf 0.18652 0.763235 0.706618 c 11 10 1498 971 bf 12 10 1509 971 bf 0.122549 0.702941 0.786029 c 11 10 1521 971 bf 0.18652
 0.763235 0.706618 c 11 10 1532 971 bf 0.0906863 0.594608 0.78125 c 12 10 1543 971 bf 0.122549 0.702941 0.786029 c 11 10 1555 971 bf 0.0906863 0.594608 0.78125 c 11 10 1566 971 bf 0.122549 0.702941 0.786029 c 12 10 1577 971 bf 0.0906863 0.594608
 0.78125 c 11 10 1589 971 bf 0.0428922 0.365196 0.687255 c 11 10 1600 971 bf 0.00759013 0.0728653 0.45351 c 12 10 1611 971 bf 0.0158128 0.151803 0.524225 c 11 10 1623 971 bf 11 10 1634 971 bf 0.0281863 0.253431 0.604902 c 12 10 1645 971 bf 0.0158128
 0.151803 0.524225 c 11 10 1657 971 bf 0.0281863 0.253431 0.604902 c 11 10 1668 971 bf 12 10 1679 971 bf 0.0158128 0.151803 0.524225 c 11 10 1691 971 bf 0.00759013 0.0728653 0.45351 c 12 10 1702 971 bf 11 10 1714 971 bf 11 10 1725 971 bf 12 10 1736
 971 bf 11 10 1748 971 bf 11 10 1759 971 bf 11 10 1782 971 bf 12 10 1804 971 bf 11 10 1827 971 bf 12 10 1838 971 bf 11 10 1861 971 bf 12 10 1872 971 bf 11 10 1884 971 bf 12 10 1906 971 bf 11 10 1918 971 bf 11 10 1952 971 bf 11 9 522 981 bf 11 9 590
 981 bf 12 9 601 981 bf 0.0158128 0.151803 0.524225 c 11 9 613 981 bf 11 9 624 981 bf 0.0281863 0.253431 0.604902 c 12 9 635 981 bf 0.0428922 0.365196 0.687255 c 11 9 647 981 bf 0.0588235 0.486275 0.776471 c 11 9 658 981 bf 0.122549 0.702941 0.786029
 c 12 9 669 981 bf 0.0588235 0.486275 0.776471 c 11 9 681 981 bf 0.18652 0.763235 0.706618 c 11 9 692 981 bf 0.122549 0.702941 0.786029 c 12 9 703 981 bf 0.18652 0.763235 0.706618 c 11 9 715 981 bf 11 9 726 981 bf 0.122549 0.702941 0.786029 c 12 9
 737 981 bf 0.549755 0.839706 0.244608 c 11 9 749 981 bf 0.18652 0.763235 0.706618 c 11 9 760 981 bf 0.549755 0.839706 0.244608 c 12 9 771 981 bf 0.4 0.807843 0.352941 c 11 9 783 981 bf 0.68799 0.869118 0.144608 c 12 9 794 981 bf 0.29326 0.785539
 0.529779 c 11 9 806 981 bf 0.549755 0.839706 0.244608 c 11 9 817 981 bf 12 9 828 981 bf 0.68799 0.869118 0.144608 c 11 9 840 981 bf 0.4 0.807843 0.352941 c 11 9 851 981 bf 0.68799 0.869118 0.144608 c 12 9 862 981 bf 0.29326 0.785539 0.529779 c 11 9
 874 981 bf 0.796569 0.585907 0.0653186 c 11 9 885 981 bf 0.4 0.807843 0.352941 c 12 9 896 981 bf 0.29326 0.785539 0.529779 c 11 9 908 981 bf 0.4 0.807843 0.352941 c 11 9 919 981 bf 0.29326 0.785539 0.529779 c 12 9 930 981 bf 0.777451 0.791422
 0.0796569 c 11 9 942 981 bf 0.549755 0.839706 0.244608 c 11 9 953 981 bf 12 9 964 981 bf 0.777451 0.791422 0.0796569 c 11 9 976 981 bf 0.68799 0.869118 0.144608 c 11 9 987 981 bf 0.777451 0.791422 0.0796569 c 12 9 998 981 bf 0.796569 0.585907
 0.0653186 c 11 9 1010 981 bf 0.4 0.807843 0.352941 c 12 9 1021 981 bf 0.549755 0.839706 0.244608 c 11 9 1033 981 bf 0.68799 0.869118 0.144608 c 11 9 1044 981 bf 0.777451 0.791422 0.0796569 c 12 9 1055 981 bf 0.4 0.807843 0.352941 c 11 9 1067 981 bf
 0.796569 0.585907 0.0653186 c 11 9 1078 981 bf 0.549755 0.839706 0.244608 c 12 9 1089 981 bf 0.777451 0.791422 0.0796569 c 11 9 1101 981 bf 0.549755 0.839706 0.244608 c 11 9 1112 981 bf 0.777451 0.791422 0.0796569 c 12 9 1123 981 bf 0.68799 0.869118
 0.144608 c 11 9 1135 981 bf 0.777451 0.791422 0.0796569 c 11 9 1146 981 bf 0.802451 0.261275 0.0436275 c 12 9 1157 981 bf 0.549755 0.839706 0.244608 c 11 9 1169 981 bf 0.68799 0.869118 0.144608 c 11 9 1180 981 bf 0.549755 0.839706 0.244608 c 12 9
 1191 981 bf 11 9 1203 981 bf 0.777451 0.791422 0.0796569 c 11 9 1214 981 bf 0.714951 0.0509804 0.0269608 c 12 9 1225 981 bf 0.777451 0.791422 0.0796569 c 11 9 1237 981 bf 0.68799 0.869118 0.144608 c 12 9 1248 981 bf 0.815686 0.380392 0.0509804 c 11
 9 1260 981 bf 0.68799 0.869118 0.144608 c 11 9 1271 981 bf 0.18652 0.763235 0.706618 c 12 9 1282 981 bf 0.796569 0.585907 0.0653186 c 11 9 1294 981 bf 0.777451 0.791422 0.0796569 c 11 9 1305 981 bf 0.549755 0.839706 0.244608 c 12 9 1316 981 bf
 0.68799 0.869118 0.144608 c 11 9 1328 981 bf 11 9 1339 981 bf 0.796569 0.585907 0.0653186 c 12 9 1350 981 bf 0.777451 0.791422 0.0796569 c 11 9 1362 981 bf 0.68799 0.869118 0.144608 c 11 9 1373 981 bf 12 9 1384 981 bf 11 9 1396 981 bf 0.4 0.807843
 0.352941 c 11 9 1407 981 bf 0.68799 0.869118 0.144608 c 12 9 1418 981 bf 0.549755 0.839706 0.244608 c 11 9 1430 981 bf 0.29326 0.785539 0.529779 c 11 9 1441 981 bf 0.68799 0.869118 0.144608 c 12 9 1452 981 bf 0.4 0.807843 0.352941 c 11 9 1464 981 bf
 12 9 1475 981 bf 0.796569 0.585907 0.0653186 c 11 9 1487 981 bf 0.18652 0.763235 0.706618 c 11 9 1498 981 bf 0.122549 0.702941 0.786029 c 12 9 1509 981 bf 0.18652 0.763235 0.706618 c 11 9 1521 981 bf 0.0906863 0.594608 0.78125 c 11 9 1532 981 bf
 0.122549 0.702941 0.786029 c 12 9 1543 981 bf 0.0588235 0.486275 0.776471 c 11 9 1555 981 bf 11 9 1566 981 bf 0.0906863 0.594608 0.78125 c 12 9 1577 981 bf 0.0428922 0.365196 0.687255 c 11 9 1589 981 bf 11 9 1600 981 bf 0.0158128 0.151803 0.524225 c
 12 9 1611 981 bf 11 9 1623 981 bf 11 9 1634 981 bf 12 9 1645 981 bf 11 9 1657 981 bf 0.0281863 0.253431 0.604902 c 11 9 1668 981 bf 0.0158128 0.151803 0.524225 c 12 9 1679 981 bf 0.00759013 0.0728653 0.45351 c 11 9 1691 981 bf 0.0158128 0.151803
 0.524225 c 12 9 1702 981 bf 0.00759013 0.0728653 0.45351 c 11 9 1714 981 bf 11 9 1725 981 bf 12 9 1736 981 bf 11 9 1748 981 bf 11 9 1759 981 bf 11 9 1816 981 bf 12 9 1872 981 bf 11 9 1884 981 bf 12 9 1929 981 bf 11 9 1941 981 bf 11 9 1952 981 bf 11
 10 590 990 bf 12 10 601 990 bf 0.0158128 0.151803 0.524225 c 11 10 613 990 bf 0.0281863 0.253431 0.604902 c 11 10 624 990 bf 12 10 635 990 bf 11 10 647 990 bf 0.0906863 0.594608 0.78125 c 11 10 658 990 bf 12 10 669 990 bf 11 10 681 990 bf 0.29326
 0.785539 0.529779 c 11 10 692 990 bf 0.122549 0.702941 0.786029 c 12 10 703 990 bf 0.0906863 0.594608 0.78125 c 11 10 715 990 bf 0.18652 0.763235 0.706618 c 11 10 726 990 bf 12 10 737 990 bf 0.29326 0.785539 0.529779 c 11 10 749 990 bf 0.549755
 0.839706 0.244608 c 11 10 760 990 bf 0.4 0.807843 0.352941 c 12 10 771 990 bf 0.29326 0.785539 0.529779 c 11 10 783 990 bf 0.4 0.807843 0.352941 c 12 10 794 990 bf 11 10 806 990 bf 0.68799 0.869118 0.144608 c 11 10 817 990 bf 12 10 828 990 bf
 0.549755 0.839706 0.244608 c 11 10 840 990 bf 0.777451 0.791422 0.0796569 c 11 10 851 990 bf 12 10 862 990 bf 0.29326 0.785539 0.529779 c 11 10 874 990 bf 0.777451 0.791422 0.0796569 c 11 10 885 990 bf 0.4 0.807843 0.352941 c 12 10 896 990 bf
 0.68799 0.869118 0.144608 c 11 10 908 990 bf 11 10 919 990 bf 12 10 930 990 bf 0.777451 0.791422 0.0796569 c 11 10 942 990 bf 0.4 0.807843 0.352941 c 11 10 953 990 bf 12 10 964 990 bf 0.68799 0.869118 0.144608 c 11 10 976 990 bf 0.4 0.807843
 0.352941 c 11 10 987 990 bf 0.549755 0.839706 0.244608 c 12 10 998 990 bf 0.4 0.807843 0.352941 c 11 10 1010 990 bf 0.549755 0.839706 0.244608 c 12 10 1021 990 bf 0.68799 0.869118 0.144608 c 11 10 1033 990 bf 0.777451 0.791422 0.0796569 c 11 10 1044
 990 bf 12 10 1055 990 bf 0.549755 0.839706 0.244608 c 11 10 1067 990 bf 0.777451 0.791422 0.0796569 c 11 10 1078 990 bf 0.796569 0.585907 0.0653186 c 12 10 1089 990 bf 0.802451 0.261275 0.0436275 c 11 10 1101 990 bf 0.68799 0.869118 0.144608 c 11 10
 1112 990 bf 0.777451 0.791422 0.0796569 c 12 10 1123 990 bf 0.788113 0.13223 0.0356618 c 11 10 1135 990 bf 0.549755 0.839706 0.244608 c 11 10 1146 990 bf 0.68799 0.869118 0.144608 c 12 10 1157 990 bf 11 10 1169 990 bf 0.796569 0.585907 0.0653186 c
 11 10 1180 990 bf 0.549755 0.839706 0.244608 c 12 10 1191 990 bf 0.802451 0.261275 0.0436275 c 11 10 1203 990 bf 0.68799 0.869118 0.144608 c 11 10 1214 990 bf 12 10 1225 990 bf 0.777451 0.791422 0.0796569 c 11 10 1237 990 bf 12 10 1248 990 bf
 0.68799 0.869118 0.144608 c 11 10 1260 990 bf 0.549755 0.839706 0.244608 c 11 10 1271 990 bf 0.796569 0.585907 0.0653186 c 12 10 1282 990 bf 0.777451 0.791422 0.0796569 c 11 10 1294 990 bf 0.815686 0.380392 0.0509804 c 11 10 1305 990 bf 0.549755
 0.839706 0.244608 c 12 10 1316 990 bf 0.777451 0.791422 0.0796569 c 11 10 1328 990 bf 0.815686 0.380392 0.0509804 c 11 10 1339 990 bf 0.68799 0.869118 0.144608 c 12 10 1350 990 bf 11 10 1362 990 bf 11 10 1373 990 bf 12 10 1384 990 bf 0.777451
 0.791422 0.0796569 c 11 10 1396 990 bf 0.549755 0.839706 0.244608 c 11 10 1407 990 bf 0.4 0.807843 0.352941 c 12 10 1418 990 bf 0.549755 0.839706 0.244608 c 11 10 1430 990 bf 0.29326 0.785539 0.529779 c 11 10 1441 990 bf 0.4 0.807843 0.352941 c 12
 10 1452 990 bf 11 10 1464 990 bf 0.122549 0.702941 0.786029 c 12 10 1475 990 bf 0.29326 0.785539 0.529779 c 11 10 1487 990 bf 0.18652 0.763235 0.706618 c 11 10 1498 990 bf 0.122549 0.702941 0.786029 c 12 10 1509 990 bf 0.0588235 0.486275 0.776471 c
 11 10 1521 990 bf 0.122549 0.702941 0.786029 c 11 10 1532 990 bf 12 10 1543 990 bf 0.0906863 0.594608 0.78125 c 11 10 1555 990 bf 11 10 1566 990 bf 0.0281863 0.253431 0.604902 c 12 10 1577 990 bf 11 10 1589 990 bf 11 10 1600 990 bf 0.0158128
 0.151803 0.524225 c 12 10 1611 990 bf 11 10 1623 990 bf 11 10 1634 990 bf 12 10 1645 990 bf 11 10 1657 990 bf 11 10 1668 990 bf 0.00759013 0.0728653 0.45351 c 12 10 1679 990 bf 11 10 1691 990 bf 12 10 1702 990 bf 11 10 1714 990 bf 11 10 1725 990 bf
 12 10 1736 990 bf 11 10 1748 990 bf 12 10 1770 990 bf 12 10 1804 990 bf 11 10 1816 990 bf 11 10 1861 990 bf 11 10 1884 990 bf 12 10 1906 990 bf 11 10 1952 990 bf 11 10 579 1000 bf 11 10 590 1000 bf 12 10 601 1000 bf 0.0158128 0.151803 0.524225 c 11
 10 613 1000 bf 0.0281863 0.253431 0.604902 c 11 10 624 1000 bf 12 10 635 1000 bf 0.0428922 0.365196 0.687255 c 11 10 647 1000 bf 0.0588235 0.486275 0.776471 c 11 10 658 1000 bf 12 10 669 1000 bf 0.18652 0.763235 0.706618 c 11 10 681 1000 bf
 0.0588235 0.486275 0.776471 c 11 10 692 1000 bf 0.122549 0.702941 0.786029 c 12 10 703 1000 bf 0.0588235 0.486275 0.776471 c 11 10 715 1000 bf 0.18652 0.763235 0.706618 c 11 10 726 1000 bf 0.0906863 0.594608 0.78125 c 12 10 737 1000 bf 0.549755
 0.839706 0.244608 c 11 10 749 1000 bf 0.122549 0.702941 0.786029 c 11 10 760 1000 bf 0.18652 0.763235 0.706618 c 12 10 771 1000 bf 0.777451 0.791422 0.0796569 c 11 10 783 1000 bf 0.18652 0.763235 0.706618 c 12 10 794 1000 bf 0.549755 0.839706
 0.244608 c 11 10 806 1000 bf 11 10 817 1000 bf 0.4 0.807843 0.352941 c 12 10 828 1000 bf 11 10 840 1000 bf 0.29326 0.785539 0.529779 c 11 10 851 1000 bf 0.796569 0.585907 0.0653186 c 12 10 862 1000 bf 0.4 0.807843 0.352941 c 11 10 874 1000 bf
 0.68799 0.869118 0.144608 c 11 10 885 1000 bf 12 10 896 1000 bf 0.796569 0.585907 0.0653186 c 11 10 908 1000 bf 0.4 0.807843 0.352941 c 11 10 919 1000 bf 0.549755 0.839706 0.244608 c 12 10 930 1000 bf 0.4 0.807843 0.352941 c 11 10 942 1000 bf
 0.68799 0.869118 0.144608 c 11 10 953 1000 bf 12 10 964 1000 bf 0.4 0.807843 0.352941 c 11 10 976 1000 bf 0.549755 0.839706 0.244608 c 11 10 987 1000 bf 0.68799 0.869118 0.144608 c 12 10 998 1000 bf 11 10 1010 1000 bf 12 10 1021 1000 bf 0.777451
 0.791422 0.0796569 c 11 10 1033 1000 bf 0.4 0.807843 0.352941 c 11 10 1044 1000 bf 0.68799 0.869118 0.144608 c 12 10 1055 1000 bf 11 10 1067 1000 bf 0.777451 0.791422 0.0796569 c 11 10 1078 1000 bf 12 10 1089 1000 bf 0.549755 0.839706 0.244608 c 11
 10 1101 1000 bf 0.777451 0.791422 0.0796569 c 11 10 1112 1000 bf 0.796569 0.585907 0.0653186 c 12 10 1123 1000 bf 0.777451 0.791422 0.0796569 c 11 10 1135 1000 bf 11 10 1146 1000 bf 0.815686 0.380392 0.0509804 c 12 10 1157 1000 bf 0.777451 0.791422
 0.0796569 c 11 10 1169 1000 bf 11 10 1180 1000 bf 0.4 0.807843 0.352941 c 12 10 1191 1000 bf 0.68799 0.869118 0.144608 c 11 10 1203 1000 bf 11 10 1214 1000 bf 0.796569 0.585907 0.0653186 c 12 10 1225 1000 bf 11 10 1237 1000 bf 0.68799 0.869118
 0.144608 c 12 10 1248 1000 bf 0.796569 0.585907 0.0653186 c 11 10 1260 1000 bf 0.549755 0.839706 0.244608 c 11 10 1271 1000 bf 0.68799 0.869118 0.144608 c 12 10 1282 1000 bf 11 10 1294 1000 bf 0.796569 0.585907 0.0653186 c 11 10 1305 1000 bf 0.4
 0.807843 0.352941 c 12 10 1316 1000 bf 11 10 1328 1000 bf 0.549755 0.839706 0.244608 c 11 10 1339 1000 bf 0.4 0.807843 0.352941 c 12 10 1350 1000 bf 0.68799 0.869118 0.144608 c 11 10 1362 1000 bf 11 10 1373 1000 bf 0.29326 0.785539 0.529779 c 12 10
 1384 1000 bf 0.777451 0.791422 0.0796569 c 11 10 1396 1000 bf 0.549755 0.839706 0.244608 c 11 10 1407 1000 bf 0.18652 0.763235 0.706618 c 12 10 1418 1000 bf 11 10 1430 1000 bf 0.777451 0.791422 0.0796569 c 11 10 1441 1000 bf 0.29326 0.785539
 0.529779 c 12 10 1452 1000 bf 0.4 0.807843 0.352941 c 11 10 1464 1000 bf 12 10 1475 1000 bf 11 10 1487 1000 bf 0.18652 0.763235 0.706618 c 11 10 1498 1000 bf 0.0906863 0.594608 0.78125 c 12 10 1509 1000 bf 0.122549 0.702941 0.786029 c 11 10 1521
 1000 bf 11 10 1532 1000 bf 12 10 1543 1000 bf 0.0428922 0.365196 0.687255 c 11 10 1555 1000 bf 0.18652 0.763235 0.706618 c 11 10 1566 1000 bf 0.0588235 0.486275 0.776471 c 12 10 1577 1000 bf 0.0281863 0.253431 0.604902 c 11 10 1589 1000 bf 0.0428922
 0.365196 0.687255 c 11 10 1600 1000 bf 0.0158128 0.151803 0.524225 c 12 10 1611 1000 bf 0.00759013 0.0728653 0.45351 c 11 10 1623 1000 bf 0.0158128 0.151803 0.524225 c 11 10 1634 1000 bf 0.0281863 0.253431 0.604902 c 12 10 1645 1000 bf 11 10 1657
 1000 bf 11 10 1668 1000 bf 0.0158128 0.151803 0.524225 c 12 10 1679 1000 bf 0.00759013 0.0728653 0.45351 c 11 10 1691 1000 bf 12 10 1702 1000 bf 11 10 1714 1000 bf 11 10 1725 1000 bf 11 10 1748 1000 bf 11 10 1759 1000 bf 11 10 1782 1000 bf 12 10
 1872 1000 bf 12 10 1906 1000 bf 11 10 1918 1000 bf 11 10 1941 1000 bf 11 10 1952 1000 bf 11 10 1975 1000 bf 11 10 579 1010 bf 11 10 590 1010 bf 11 10 613 1010 bf 0.0158128 0.151803 0.524225 c 11 10 624 1010 bf 0.0281863 0.253431 0.604902 c 12 10 635
 1010 bf 11 10 647 1010 bf 0.0428922 0.365196 0.687255 c 11 10 658 1010 bf 12 10 669 1010 bf 0.0906863 0.594608 0.78125 c 11 10 681 1010 bf 0.122549 0.702941 0.786029 c 11 10 692 1010 bf 12 10 703 1010 bf 0.18652 0.763235 0.706618 c 11 10 715 1010 bf
 11 10 726 1010 bf 0.122549 0.702941 0.786029 c 12 10 737 1010 bf 0.549755 0.839706 0.244608 c 11 10 749 1010 bf 0.29326 0.785539 0.529779 c 11 10 760 1010 bf 12 10 771 1010 bf 0.4 0.807843 0.352941 c 11 10 783 1010 bf 0.549755 0.839706 0.244608 c 12
 10 794 1010 bf 0.777451 0.791422 0.0796569 c 11 10 806 1010 bf 0.4 0.807843 0.352941 c 11 10 817 1010 bf 0.777451 0.791422 0.0796569 c 12 10 828 1010 bf 0.68799 0.869118 0.144608 c 11 10 840 1010 bf 0.777451 0.791422 0.0796569 c 11 10 851 1010 bf
 0.68799 0.869118 0.144608 c 12 10 862 1010 bf 0.549755 0.839706 0.244608 c 11 10 874 1010 bf 0.68799 0.869118 0.144608 c 11 10 885 1010 bf 0.4 0.807843 0.352941 c 12 10 896 1010 bf 0.68799 0.869118 0.144608 c 11 10 908 1010 bf 0.4 0.807843 0.352941
 c 11 10 919 1010 bf 0.68799 0.869118 0.144608 c 12 10 930 1010 bf 0.29326 0.785539 0.529779 c 11 10 942 1010 bf 0.777451 0.791422 0.0796569 c 11 10 953 1010 bf 0.68799 0.869118 0.144608 c 12 10 964 1010 bf 0.4 0.807843 0.352941 c 11 10 976 1010 bf
 0.68799 0.869118 0.144608 c 11 10 987 1010 bf 0.4 0.807843 0.352941 c 12 10 998 1010 bf 0.68799 0.869118 0.144608 c 11 10 1010 1010 bf 12 10 1021 1010 bf 0.815686 0.380392 0.0509804 c 11 10 1033 1010 bf 0.68799 0.869118 0.144608 c 11 10 1044 1010 bf
 0.815686 0.380392 0.0509804 c 12 10 1055 1010 bf 0.4 0.807843 0.352941 c 11 10 1067 1010 bf 0.815686 0.380392 0.0509804 c 11 10 1078 1010 bf 0.68799 0.869118 0.144608 c 12 10 1089 1010 bf 0.796569 0.585907 0.0653186 c 11 10 1101 1010 bf 11 10 1112
 1010 bf 12 10 1123 1010 bf 0.777451 0.791422 0.0796569 c 11 10 1135 1010 bf 0.802451 0.261275 0.0436275 c 11 10 1146 1010 bf 0.777451 0.791422 0.0796569 c 12 10 1157 1010 bf 0.796569 0.585907 0.0653186 c 11 10 1169 1010 bf 11 10 1180 1010 bf
 0.777451 0.791422 0.0796569 c 12 10 1191 1010 bf 0.4 0.807843 0.352941 c 11 10 1203 1010 bf 0.777451 0.791422 0.0796569 c 11 10 1214 1010 bf 0.802451 0.261275 0.0436275 c 12 10 1225 1010 bf 0.549755 0.839706 0.244608 c 11 10 1237 1010 bf 12 10 1248
 1010 bf 0.68799 0.869118 0.144608 c 11 10 1260 1010 bf 0.4 0.807843 0.352941 c 11 10 1271 1010 bf 0.549755 0.839706 0.244608 c 12 10 1282 1010 bf 0.68799 0.869118 0.144608 c 11 10 1294 1010 bf 0.796569 0.585907 0.0653186 c 11 10 1305 1010 bf
 0.777451 0.791422 0.0796569 c 12 10 1316 1010 bf 11 10 1328 1010 bf 11 10 1339 1010 bf 12 10 1350 1010 bf 11 10 1362 1010 bf 0.796569 0.585907 0.0653186 c 11 10 1373 1010 bf 0.802451 0.261275 0.0436275 c 12 10 1384 1010 bf 0.68799 0.869118 0.144608
 c 11 10 1396 1010 bf 11 10 1407 1010 bf 0.549755 0.839706 0.244608 c 12 10 1418 1010 bf 0.4 0.807843 0.352941 c 11 10 1430 1010 bf 0.29326 0.785539 0.529779 c 11 10 1441 1010 bf 12 10 1452 1010 bf 0.549755 0.839706 0.244608 c 11 10 1464 1010 bf
 0.815686 0.380392 0.0509804 c 12 10 1475 1010 bf 0.122549 0.702941 0.786029 c 11 10 1487 1010 bf 11 10 1498 1010 bf 0.29326 0.785539 0.529779 c 12 10 1509 1010 bf 0.0588235 0.486275 0.776471 c 11 10 1521 1010 bf 0.122549 0.702941 0.786029 c 11 10
 1532 1010 bf 0.18652 0.763235 0.706618 c 12 10 1543 1010 bf 0.122549 0.702941 0.786029 c 11 10 1555 1010 bf 0.0588235 0.486275 0.776471 c 11 10 1566 1010 bf 0.0281863 0.253431 0.604902 c 12 10 1577 1010 bf 11 10 1589 1010 bf 11 10 1600 1010 bf 12 10
 1611 1010 bf 11 10 1623 1010 bf 0.00759013 0.0728653 0.45351 c 11 10 1634 1010 bf 0.0281863 0.253431 0.604902 c 12 10 1645 1010 bf 11 10 1657 1010 bf 11 10 1668 1010 bf 12 10 1679 1010 bf 11 10 1691 1010 bf 0.00759013 0.0728653 0.45351 c 12 10 1702
 1010 bf 11 10 1714 1010 bf 11 10 1725 1010 bf 12 10 1736 1010 bf 11 10 1748 1010 bf 11 10 1759 1010 bf 12 10 1770 1010 bf 11 10 1782 1010 bf 11 10 1793 1010 bf 11 10 1850 1010 bf 11 10 1861 1010 bf 11 10 1884 1010 bf 11 10 1895 1010 bf 12 10 1906
 1010 bf 12 10 1929 1010 bf 11 9 579 1020 bf 12 9 601 1020 bf 0.0158128 0.151803 0.524225 c 11 9 613 1020 bf 11 9 624 1020 bf 0.0281863 0.253431 0.604902 c 12 9 635 1020 bf 0.0428922 0.365196 0.687255 c 11 9 647 1020 bf 0.122549 0.702941 0.786029 c
 11 9 658 1020 bf 0.0588235 0.486275 0.776471 c 12 9 669 1020 bf 0.122549 0.702941 0.786029 c 11 9 681 1020 bf 0.18652 0.763235 0.706618 c 11 9 692 1020 bf 0.122549 0.702941 0.786029 c 12 9 703 1020 bf 0.18652 0.763235 0.706618 c 11 9 715 1020 bf 0.4
 0.807843 0.352941 c 11 9 726 1020 bf 0.18652 0.763235 0.706618 c 12 9 737 1020 bf 11 9 749 1020 bf 0.549755 0.839706 0.244608 c 11 9 760 1020 bf 0.4 0.807843 0.352941 c 12 9 771 1020 bf 11 9 783 1020 bf 0.29326 0.785539 0.529779 c 12 9 794 1020 bf
 0.796569 0.585907 0.0653186 c 11 9 806 1020 bf 0.4 0.807843 0.352941 c 11 9 817 1020 bf 0.777451 0.791422 0.0796569 c 12 9 828 1020 bf 0.68799 0.869118 0.144608 c 11 9 840 1020 bf 0.549755 0.839706 0.244608 c 11 9 851 1020 bf 0.796569 0.585907
 0.0653186 c 12 9 862 1020 bf 0.4 0.807843 0.352941 c 11 9 874 1020 bf 0.549755 0.839706 0.244608 c 11 9 885 1020 bf 12 9 896 1020 bf 0.68799 0.869118 0.144608 c 11 9 908 1020 bf 0.4 0.807843 0.352941 c 11 9 919 1020 bf 0.549755 0.839706 0.244608 c
 12 9 930 1020 bf 0.68799 0.869118 0.144608 c 11 9 942 1020 bf 0.4 0.807843 0.352941 c 11 9 953 1020 bf 0.777451 0.791422 0.0796569 c 12 9 964 1020 bf 0.29326 0.785539 0.529779 c 11 9 976 1020 bf 0.549755 0.839706 0.244608 c 11 9 987 1020 bf 0.68799
 0.869118 0.144608 c 12 9 998 1020 bf 0.4 0.807843 0.352941 c 11 9 1010 1020 bf 0.777451 0.791422 0.0796569 c 12 9 1021 1020 bf 0.796569 0.585907 0.0653186 c 11 9 1033 1020 bf 0.815686 0.380392 0.0509804 c 11 9 1044 1020 bf 0.777451 0.791422
 0.0796569 c 12 9 1055 1020 bf 11 9 1067 1020 bf 0.796569 0.585907 0.0653186 c 11 9 1078 1020 bf 12 9 1089 1020 bf 11 9 1101 1020 bf 0.777451 0.791422 0.0796569 c 11 9 1112 1020 bf 0.802451 0.261275 0.0436275 c 12 9 1123 1020 bf 0.815686 0.380392
 0.0509804 c 11 9 1135 1020 bf 0.68799 0.869118 0.144608 c 11 9 1146 1020 bf 0.777451 0.791422 0.0796569 c 12 9 1157 1020 bf 0.68799 0.869118 0.144608 c 11 9 1169 1020 bf 0.796569 0.585907 0.0653186 c 11 9 1180 1020 bf 0.777451 0.791422 0.0796569 c
 12 9 1191 1020 bf 0.549755 0.839706 0.244608 c 11 9 1203 1020 bf 0.802451 0.261275 0.0436275 c 11 9 1214 1020 bf 0.4 0.807843 0.352941 c 12 9 1225 1020 bf 0.68799 0.869118 0.144608 c 11 9 1237 1020 bf 0.796569 0.585907 0.0653186 c 12 9 1248 1020 bf
 0.4 0.807843 0.352941 c 11 9 1260 1020 bf 0.68799 0.869118 0.144608 c 11 9 1271 1020 bf 0.777451 0.791422 0.0796569 c 12 9 1282 1020 bf 0.68799 0.869118 0.144608 c 11 9 1294 1020 bf 0.549755 0.839706 0.244608 c 11 9 1305 1020 bf 0.68799 0.869118
 0.144608 c 12 9 1316 1020 bf 0.796569 0.585907 0.0653186 c 11 9 1328 1020 bf 0.777451 0.791422 0.0796569 c 11 9 1339 1020 bf 0.68799 0.869118 0.144608 c 12 9 1350 1020 bf 0.549755 0.839706 0.244608 c 11 9 1362 1020 bf 0.777451 0.791422 0.0796569 c
 11 9 1373 1020 bf 0.796569 0.585907 0.0653186 c 12 9 1384 1020 bf 0.4 0.807843 0.352941 c 11 9 1396 1020 bf 0.29326 0.785539 0.529779 c 11 9 1407 1020 bf 0.68799 0.869118 0.144608 c 12 9 1418 1020 bf 0.549755 0.839706 0.244608 c 11 9 1430 1020 bf
 0.4 0.807843 0.352941 c 11 9 1441 1020 bf 0.18652 0.763235 0.706618 c 12 9 1452 1020 bf 0.4 0.807843 0.352941 c 11 9 1464 1020 bf 0.18652 0.763235 0.706618 c 12 9 1475 1020 bf 0.122549 0.702941 0.786029 c 11 9 1487 1020 bf 0.18652 0.763235 0.706618
 c 11 9 1498 1020 bf 0.0906863 0.594608 0.78125 c 12 9 1509 1020 bf 0.18652 0.763235 0.706618 c 11 9 1521 1020 bf 11 9 1532 1020 bf 0.122549 0.702941 0.786029 c 12 9 1543 1020 bf 0.0906863 0.594608 0.78125 c 11 9 1555 1020 bf 0.0588235 0.486275
 0.776471 c 11 9 1566 1020 bf 0.0281863 0.253431 0.604902 c 12 9 1577 1020 bf 11 9 1589 1020 bf 11 9 1600 1020 bf 12 9 1611 1020 bf 11 9 1623 1020 bf 0.0158128 0.151803 0.524225 c 11 9 1634 1020 bf 12 9 1645 1020 bf 0.0428922 0.365196 0.687255 c 11 9
 1657 1020 bf 0.0281863 0.253431 0.604902 c 11 9 1668 1020 bf 12 9 1679 1020 bf 0.0158128 0.151803 0.524225 c 11 9 1691 1020 bf 12 9 1702 1020 bf 0.00759013 0.0728653 0.45351 c 11 9 1714 1020 bf 11 9 1725 1020 bf 11 9 1748 1020 bf 11 9 1759 1020 bf
 11 9 1782 1020 bf 11 9 1793 1020 bf 12 9 1804 1020 bf 12 9 1872 1020 bf 11 9 1884 1020 bf 12 9 1906 1020 bf 11 9 1918 1020 bf 11 10 590 1029 bf 12 10 601 1029 bf 11 10 613 1029 bf 0.0281863 0.253431 0.604902 c 11 10 624 1029 bf 12 10 635 1029 bf 11
 10 647 1029 bf 0.0428922 0.365196 0.687255 c 11 10 658 1029 bf 0.0588235 0.486275 0.776471 c 12 10 669 1029 bf 0.122549 0.702941 0.786029 c 11 10 681 1029 bf 0.0588235 0.486275 0.776471 c 11 10 692 1029 bf 0.18652 0.763235 0.706618 c 12 10 703 1029
 bf 0.122549 0.702941 0.786029 c 11 10 715 1029 bf 0.18652 0.763235 0.706618 c 11 10 726 1029 bf 0.29326 0.785539 0.529779 c 12 10 737 1029 bf 0.4 0.807843 0.352941 c 11 10 749 1029 bf 0.549755 0.839706 0.244608 c 11 10 760 1029 bf 0.122549 0.702941
 0.786029 c 12 10 771 1029 bf 0.29326 0.785539 0.529779 c 11 10 783 1029 bf 0.549755 0.839706 0.244608 c 12 10 794 1029 bf 0.777451 0.791422 0.0796569 c 11 10 806 1029 bf 0.549755 0.839706 0.244608 c 11 10 817 1029 bf 0.4 0.807843 0.352941 c 12 10
 828 1029 bf 0.549755 0.839706 0.244608 c 11 10 840 1029 bf 0.777451 0.791422 0.0796569 c 11 10 851 1029 bf 0.796569 0.585907 0.0653186 c 12 10 862 1029 bf 0.68799 0.869118 0.144608 c 11 10 874 1029 bf 0.777451 0.791422 0.0796569 c 11 10 885 1029 bf
 0.4 0.807843 0.352941 c 12 10 896 1029 bf 0.68799 0.869118 0.144608 c 11 10 908 1029 bf 11 10 919 1029 bf 12 10 930 1029 bf 11 10 942 1029 bf 0.777451 0.791422 0.0796569 c 11 10 953 1029 bf 12 10 964 1029 bf 0.796569 0.585907 0.0653186 c 11 10 976
 1029 bf 11 10 987 1029 bf 0.68799 0.869118 0.144608 c 12 10 998 1029 bf 11 10 1010 1029 bf 0.815686 0.380392 0.0509804 c 12 10 1021 1029 bf 0.777451 0.791422 0.0796569 c 11 10 1033 1029 bf 0.796569 0.585907 0.0653186 c 11 10 1044 1029 bf 0.549755
 0.839706 0.244608 c 12 10 1055 1029 bf 0.68799 0.869118 0.144608 c 11 10 1067 1029 bf 0.802451 0.261275 0.0436275 c 11 10 1078 1029 bf 0.549755 0.839706 0.244608 c 12 10 1089 1029 bf 0.796569 0.585907 0.0653186 c 11 10 1101 1029 bf 0.777451 0.791422
 0.0796569 c 11 10 1112 1029 bf 0.796569 0.585907 0.0653186 c 12 10 1123 1029 bf 0.788113 0.13223 0.0356618 c 11 10 1135 1029 bf 0.815686 0.380392 0.0509804 c 11 10 1146 1029 bf 0.68799 0.869118 0.144608 c 12 10 1157 1029 bf 0.777451 0.791422
 0.0796569 c 11 10 1169 1029 bf 0.549755 0.839706 0.244608 c 11 10 1180 1029 bf 0.788113 0.13223 0.0356618 c 12 10 1191 1029 bf 0.68799 0.869118 0.144608 c 11 10 1203 1029 bf 0.4 0.807843 0.352941 c 11 10 1214 1029 bf 0.777451 0.791422 0.0796569 c 12
 10 1225 1029 bf 0.796569 0.585907 0.0653186 c 11 10 1237 1029 bf 0.68799 0.869118 0.144608 c 12 10 1248 1029 bf 0.777451 0.791422 0.0796569 c 11 10 1260 1029 bf 0.68799 0.869118 0.144608 c 11 10 1271 1029 bf 12 10 1282 1029 bf 0.4 0.807843 0.352941
 c 11 10 1294 1029 bf 0.68799 0.869118 0.144608 c 11 10 1305 1029 bf 0.549755 0.839706 0.244608 c 12 10 1316 1029 bf 11 10 1328 1029 bf 11 10 1339 1029 bf 0.29326 0.785539 0.529779 c 12 10 1350 1029 bf 0.796569 0.585907 0.0653186 c 11 10 1362 1029 bf
 11 10 1373 1029 bf 0.29326 0.785539 0.529779 c 12 10 1384 1029 bf 0.549755 0.839706 0.244608 c 11 10 1396 1029 bf 0.4 0.807843 0.352941 c 11 10 1407 1029 bf 12 10 1418 1029 bf 11 10 1430 1029 bf 0.29326 0.785539 0.529779 c 11 10 1441 1029 bf
 0.122549 0.702941 0.786029 c 12 10 1452 1029 bf 0.0906863 0.594608 0.78125 c 11 10 1464 1029 bf 0.18652 0.763235 0.706618 c 12 10 1475 1029 bf 11 10 1487 1029 bf 0.4 0.807843 0.352941 c 11 10 1498 1029 bf 0.122549 0.702941 0.786029 c 12 10 1509 1029
 bf 0.0588235 0.486275 0.776471 c 11 10 1521 1029 bf 0.122549 0.702941 0.786029 c 11 10 1532 1029 bf 0.0906863 0.594608 0.78125 c 12 10 1543 1029 bf 0.0281863 0.253431 0.604902 c 11 10 1555 1029 bf 0.0906863 0.594608 0.78125 c 11 10 1566 1029 bf
 0.0281863 0.253431 0.604902 c 12 10 1577 1029 bf 11 10 1589 1029 bf 11 10 1600 1029 bf 12 10 1611 1029 bf 0.0158128 0.151803 0.524225 c 11 10 1623 1029 bf 0.0281863 0.253431 0.604902 c 11 10 1634 1029 bf 12 10 1645 1029 bf 0.0158128 0.151803
 0.524225 c 11 10 1657 1029 bf 0.00759013 0.0728653 0.45351 c 11 10 1668 1029 bf 0.0158128 0.151803 0.524225 c 12 10 1679 1029 bf 11 10 1691 1029 bf 0.00759013 0.0728653 0.45351 c 12 10 1702 1029 bf 11 10 1714 1029 bf 11 10 1725 1029 bf 12 10 1736
 1029 bf 11 10 1748 1029 bf 11 10 1759 1029 bf 12 10 1770 1029 bf 11 10 1782 1029 bf 12 10 1838 1029 bf 11 10 1850 1029 bf 12 10 1872 1029 bf 12 10 1906 1029 bf 12 10 1929 1029 bf 11 10 590 1039 bf 12 10 601 1039 bf 11 10 613 1039 bf 0.0281863
 0.253431 0.604902 c 11 10 624 1039 bf 12 10 635 1039 bf 0.0588235 0.486275 0.776471 c 11 10 647 1039 bf 0.0428922 0.365196 0.687255 c 11 10 658 1039 bf 0.0906863 0.594608 0.78125 c 12 10 669 1039 bf 11 10 681 1039 bf 0.18652 0.763235 0.706618 c 11
 10 692 1039 bf 0.29326 0.785539 0.529779 c 12 10 703 1039 bf 0.18652 0.763235 0.706618 c 11 10 715 1039 bf 11 10 726 1039 bf 0.122549 0.702941 0.786029 c 12 10 737 1039 bf 0.18652 0.763235 0.706618 c 11 10 749 1039 bf 0.4 0.807843 0.352941 c 11 10
 760 1039 bf 0.549755 0.839706 0.244608 c 12 10 771 1039 bf 0.4 0.807843 0.352941 c 11 10 783 1039 bf 0.549755 0.839706 0.244608 c 12 10 794 1039 bf 0.777451 0.791422 0.0796569 c 11 10 806 1039 bf 0.549755 0.839706 0.244608 c 11 10 817 1039 bf
 0.68799 0.869118 0.144608 c 12 10 828 1039 bf 11 10 840 1039 bf 0.777451 0.791422 0.0796569 c 11 10 851 1039 bf 0.29326 0.785539 0.529779 c 12 10 862 1039 bf 0.4 0.807843 0.352941 c 11 10 874 1039 bf 0.777451 0.791422 0.0796569 c 11 10 885 1039 bf
 0.68799 0.869118 0.144608 c 12 10 896 1039 bf 11 10 908 1039 bf 0.796569 0.585907 0.0653186 c 11 10 919 1039 bf 0.68799 0.869118 0.144608 c 12 10 930 1039 bf 0.4 0.807843 0.352941 c 11 10 942 1039 bf 0.777451 0.791422 0.0796569 c 11 10 953 1039 bf
 12 10 964 1039 bf 11 10 976 1039 bf 11 10 987 1039 bf 0.802451 0.261275 0.0436275 c 12 10 998 1039 bf 0.68799 0.869118 0.144608 c 11 10 1010 1039 bf 0.777451 0.791422 0.0796569 c 12 10 1021 1039 bf 0.68799 0.869118 0.144608 c 11 10 1033 1039 bf
 0.777451 0.791422 0.0796569 c 11 10 1044 1039 bf 0.802451 0.261275 0.0436275 c 12 10 1055 1039 bf 0.714951 0.0509804 0.0269608 c 11 10 1067 1039 bf 0.68799 0.869118 0.144608 c 11 10 1078 1039 bf 12 10 1089 1039 bf 0.796569 0.585907 0.0653186 c 11 10
 1101 1039 bf 0.549755 0.839706 0.244608 c 11 10 1112 1039 bf 12 10 1123 1039 bf 0.777451 0.791422 0.0796569 c 11 10 1135 1039 bf 0.68799 0.869118 0.144608 c 11 10 1146 1039 bf 12 10 1157 1039 bf 11 10 1169 1039 bf 0.549755 0.839706 0.244608 c 11 10
 1180 1039 bf 12 10 1191 1039 bf 0.4 0.807843 0.352941 c 11 10 1203 1039 bf 11 10 1214 1039 bf 0.549755 0.839706 0.244608 c 12 10 1225 1039 bf 0.796569 0.585907 0.0653186 c 11 10 1237 1039 bf 0.4 0.807843 0.352941 c 12 10 1248 1039 bf 11 10 1260 1039
 bf 0.29326 0.785539 0.529779 c 11 10 1271 1039 bf 12 10 1282 1039 bf 0.4 0.807843 0.352941 c 11 10 1294 1039 bf 0.549755 0.839706 0.244608 c 11 10 1305 1039 bf 0.4 0.807843 0.352941 c 12 10 1316 1039 bf 0.29326 0.785539 0.529779 c 11 10 1328 1039 bf
 0.4 0.807843 0.352941 c 11 10 1339 1039 bf 0.18652 0.763235 0.706618 c 12 10 1350 1039 bf 11 10 1362 1039 bf 11 10 1373 1039 bf 0.122549 0.702941 0.786029 c 12 10 1384 1039 bf 0.29326 0.785539 0.529779 c 11 10 1396 1039 bf 0.0906863 0.594608 0.78125
 c 11 10 1407 1039 bf 0.18652 0.763235 0.706618 c 12 10 1418 1039 bf 0.122549 0.702941 0.786029 c 11 10 1430 1039 bf 11 10 1441 1039 bf 0.18652 0.763235 0.706618 c 12 10 1452 1039 bf 0.0906863 0.594608 0.78125 c 11 10 1464 1039 bf 0.122549 0.702941
 0.786029 c 12 10 1475 1039 bf 11 10 1487 1039 bf 11 10 1498 1039 bf 0.0906863 0.594608 0.78125 c 12 10 1509 1039 bf 0.0588235 0.486275 0.776471 c 11 10 1521 1039 bf 11 10 1532 1039 bf 12 10 1543 1039 bf 11 10 1555 1039 bf 0.0428922 0.365196 0.687255
 c 11 10 1566 1039 bf 0.0281863 0.253431 0.604902 c 12 10 1577 1039 bf 11 10 1589 1039 bf 11 10 1600 1039 bf 0.0158128 0.151803 0.524225 c 12 10 1611 1039 bf 0.00759013 0.0728653 0.45351 c 11 10 1623 1039 bf 0.0158128 0.151803 0.524225 c 11 10 1634
 1039 bf 0.0281863 0.253431 0.604902 c 12 10 1645 1039 bf 0.0158128 0.151803 0.524225 c 11 10 1657 1039 bf 11 10 1668 1039 bf 0.00759013 0.0728653 0.45351 c 12 10 1679 1039 bf 11 10 1691 1039 bf 12 10 1702 1039 bf 11 10 1714 1039 bf 11 10 1782 1039
 bf 12 10 1906 1039 bf 11 9 590 1049 bf 12 9 601 1049 bf 0.0158128 0.151803 0.524225 c 11 9 613 1049 bf 0.0281863 0.253431 0.604902 c 11 9 624 1049 bf 12 9 635 1049 bf 0.0428922 0.365196 0.687255 c 11 9 647 1049 bf 0.0588235 0.486275 0.776471 c 11 9
 658 1049 bf 0.0428922 0.365196 0.687255 c 12 9 669 1049 bf 0.0588235 0.486275 0.776471 c 11 9 681 1049 bf 0.18652 0.763235 0.706618 c 11 9 692 1049 bf 12 9 703 1049 bf 0.0906863 0.594608 0.78125 c 11 9 715 1049 bf 11 9 726 1049 bf 0.29326 0.785539
 0.529779 c 12 9 737 1049 bf 0.4 0.807843 0.352941 c 11 9 749 1049 bf 11 9 760 1049 bf 0.68799 0.869118 0.144608 c 12 9 771 1049 bf 0.4 0.807843 0.352941 c 11 9 783 1049 bf 0.122549 0.702941 0.786029 c 12 9 794 1049 bf 0.68799 0.869118 0.144608 c 11
 9 806 1049 bf 0.549755 0.839706 0.244608 c 11 9 817 1049 bf 0.29326 0.785539 0.529779 c 12 9 828 1049 bf 0.68799 0.869118 0.144608 c 11 9 840 1049 bf 0.29326 0.785539 0.529779 c 11 9 851 1049 bf 0.796569 0.585907 0.0653186 c 12 9 862 1049 bf 0.4
 0.807843 0.352941 c 11 9 874 1049 bf 11 9 885 1049 bf 12 9 896 1049 bf 0.777451 0.791422 0.0796569 c 11 9 908 1049 bf 11 9 919 1049 bf 0.549755 0.839706 0.244608 c 12 9 930 1049 bf 0.68799 0.869118 0.144608 c 11 9 942 1049 bf 0.29326 0.785539
 0.529779 c 11 9 953 1049 bf 0.549755 0.839706 0.244608 c 12 9 964 1049 bf 0.4 0.807843 0.352941 c 11 9 976 1049 bf 0.549755 0.839706 0.244608 c 11 9 987 1049 bf 0.68799 0.869118 0.144608 c 12 9 998 1049 bf 0.549755 0.839706 0.244608 c 11 9 1010 1049
 bf 0.4 0.807843 0.352941 c 12 9 1021 1049 bf 0.796569 0.585907 0.0653186 c 11 9 1033 1049 bf 0.29326 0.785539 0.529779 c 11 9 1044 1049 bf 0.549755 0.839706 0.244608 c 12 9 1055 1049 bf 11 9 1067 1049 bf 0.4 0.807843 0.352941 c 11 9 1078 1049 bf
 0.68799 0.869118 0.144608 c 12 9 1089 1049 bf 11 9 1101 1049 bf 0.29326 0.785539 0.529779 c 11 9 1112 1049 bf 12 9 1123 1049 bf 0.777451 0.791422 0.0796569 c 11 9 1135 1049 bf 0.4 0.807843 0.352941 c 11 9 1146 1049 bf 12 9 1157 1049 bf 0.29326
 0.785539 0.529779 c 11 9 1169 1049 bf 0.122549 0.702941 0.786029 c 11 9 1180 1049 bf 0.18652 0.763235 0.706618 c 12 9 1191 1049 bf 11 9 1203 1049 bf 0.122549 0.702941 0.786029 c 11 9 1214 1049 bf 0.18652 0.763235 0.706618 c 12 9 1225 1049 bf
 0.549755 0.839706 0.244608 c 11 9 1237 1049 bf 0.122549 0.702941 0.786029 c 12 9 1248 1049 bf 0.18652 0.763235 0.706618 c 11 9 1260 1049 bf 0.0906863 0.594608 0.78125 c 11 9 1271 1049 bf 0.0588235 0.486275 0.776471 c 12 9 1282 1049 bf 0.122549
 0.702941 0.786029 c 11 9 1294 1049 bf 0.0906863 0.594608 0.78125 c 11 9 1305 1049 bf 0.0588235 0.486275 0.776471 c 12 9 1316 1049 bf 11 9 1328 1049 bf 11 9 1339 1049 bf 0.122549 0.702941 0.786029 c 12 9 1350 1049 bf 11 9 1362 1049 bf 0.0588235
 0.486275 0.776471 c 11 9 1373 1049 bf 12 9 1384 1049 bf 0.18652 0.763235 0.706618 c 11 9 1396 1049 bf 0.0906863 0.594608 0.78125 c 11 9 1407 1049 bf 0.122549 0.702941 0.786029 c 12 9 1418 1049 bf 0.0588235 0.486275 0.776471 c 11 9 1430 1049 bf
 0.0428922 0.365196 0.687255 c 11 9 1441 1049 bf 0.0906863 0.594608 0.78125 c 12 9 1452 1049 bf 0.0588235 0.486275 0.776471 c 11 9 1464 1049 bf 0.0428922 0.365196 0.687255 c 12 9 1475 1049 bf 0.0281863 0.253431 0.604902 c 11 9 1487 1049 bf 0.0428922
 0.365196 0.687255 c 11 9 1498 1049 bf 0.0588235 0.486275 0.776471 c 12 9 1509 1049 bf 0.0281863 0.253431 0.604902 c 11 9 1521 1049 bf 0.0158128 0.151803 0.524225 c 11 9 1532 1049 bf 12 9 1543 1049 bf 0.0281863 0.253431 0.604902 c 11 9 1555 1049 bf
 0.0158128 0.151803 0.524225 c 11 9 1566 1049 bf 0.00759013 0.0728653 0.45351 c 12 9 1577 1049 bf 0.0158128 0.151803 0.524225 c 11 9 1589 1049 bf 0.00759013 0.0728653 0.45351 c 11 9 1600 1049 bf 12 9 1611 1049 bf 11 9 1623 1049 bf 11 9 1634 1049 bf
 12 9 1645 1049 bf 11 9 1657 1049 bf 11 9 1691 1049 bf 11 9 1725 1049 bf 12 9 1906 1049 bf 11 10 579 1058 bf 11 10 590 1058 bf 0.0158128 0.151803 0.524225 c 12 10 601 1058 bf 0.00759013 0.0728653 0.45351 c 11 10 613 1058 bf 0.0158128 0.151803
 0.524225 c 11 10 624 1058 bf 12 10 635 1058 bf 0.0428922 0.365196 0.687255 c 11 10 647 1058 bf 11 10 658 1058 bf 0.0588235 0.486275 0.776471 c 12 10 669 1058 bf 0.0281863 0.253431 0.604902 c 11 10 681 1058 bf 0.122549 0.702941 0.786029 c 11 10 692
 1058 bf 0.18652 0.763235 0.706618 c 12 10 703 1058 bf 0.0906863 0.594608 0.78125 c 11 10 715 1058 bf 0.549755 0.839706 0.244608 c 11 10 726 1058 bf 0.122549 0.702941 0.786029 c 12 10 737 1058 bf 11 10 749 1058 bf 0.29326 0.785539 0.529779 c 11 10
 760 1058 bf 0.18652 0.763235 0.706618 c 12 10 771 1058 bf 0.4 0.807843 0.352941 c 11 10 783 1058 bf 0.549755 0.839706 0.244608 c 12 10 794 1058 bf 11 10 806 1058 bf 0.29326 0.785539 0.529779 c 11 10 817 1058 bf 0.4 0.807843 0.352941 c 12 10 828 1058
 bf 0.29326 0.785539 0.529779 c 11 10 840 1058 bf 0.4 0.807843 0.352941 c 11 10 851 1058 bf 0.549755 0.839706 0.244608 c 12 10 862 1058 bf 0.18652 0.763235 0.706618 c 11 10 874 1058 bf 0.4 0.807843 0.352941 c 11 10 885 1058 bf 12 10 896 1058 bf 11 10
 908 1058 bf 0.18652 0.763235 0.706618 c 11 10 919 1058 bf 12 10 930 1058 bf 0.4 0.807843 0.352941 c 11 10 942 1058 bf 0.18652 0.763235 0.706618 c 11 10 953 1058 bf 0.0906863 0.594608 0.78125 c 12 10 964 1058 bf 0.122549 0.702941 0.786029 c 11 10 976
 1058 bf 0.4 0.807843 0.352941 c 11 10 987 1058 bf 12 10 998 1058 bf 11 10 1010 1058 bf 0.29326 0.785539 0.529779 c 12 10 1021 1058 bf 0.18652 0.763235 0.706618 c 11 10 1033 1058 bf 0.549755 0.839706 0.244608 c 11 10 1044 1058 bf 0.29326 0.785539
 0.529779 c 12 10 1055 1058 bf 11 10 1067 1058 bf 0.122549 0.702941 0.786029 c 11 10 1078 1058 bf 0.0906863 0.594608 0.78125 c 12 10 1089 1058 bf 0.122549 0.702941 0.786029 c 11 10 1101 1058 bf 0.29326 0.785539 0.529779 c 11 10 1112 1058 bf 0.18652
 0.763235 0.706618 c 12 10 1123 1058 bf 0.29326 0.785539 0.529779 c 11 10 1135 1058 bf 0.18652 0.763235 0.706618 c 11 10 1146 1058 bf 0.0906863 0.594608 0.78125 c 12 10 1157 1058 bf 0.0588235 0.486275 0.776471 c 11 10 1169 1058 bf 0.122549 0.702941
 0.786029 c 11 10 1180 1058 bf 12 10 1191 1058 bf 11 10 1203 1058 bf 11 10 1214 1058 bf 0.0588235 0.486275 0.776471 c 12 10 1225 1058 bf 11 10 1237 1058 bf 12 10 1248 1058 bf 0.0906863 0.594608 0.78125 c 11 10 1260 1058 bf 0.0588235 0.486275 0.776471
 c 11 10 1271 1058 bf 12 10 1282 1058 bf 0.0281863 0.253431 0.604902 c 11 10 1294 1058 bf 11 10 1305 1058 bf 0.0428922 0.365196 0.687255 c 12 10 1316 1058 bf 0.0588235 0.486275 0.776471 c 11 10 1328 1058 bf 0.0428922 0.365196 0.687255 c 11 10 1339
 1058 bf 0.0588235 0.486275 0.776471 c 12 10 1350 1058 bf 0.0428922 0.365196 0.687255 c 11 10 1362 1058 bf 0.0588235 0.486275 0.776471 c 11 10 1373 1058 bf 0.0428922 0.365196 0.687255 c 12 10 1384 1058 bf 11 10 1396 1058 bf 11 10 1407 1058 bf 12 10
 1418 1058 bf 0.0281863 0.253431 0.604902 c 11 10 1430 1058 bf 0.0588235 0.486275 0.776471 c 11 10 1441 1058 bf 0.0428922 0.365196 0.687255 c 12 10 1452 1058 bf 0.0281863 0.253431 0.604902 c 11 10 1464 1058 bf 0.0428922 0.365196 0.687255 c 12 10 1475
 1058 bf 0.0158128 0.151803 0.524225 c 11 10 1487 1058 bf 11 10 1498 1058 bf 12 10 1509 1058 bf 11 10 1521 1058 bf 11 10 1532 1058 bf 12 10 1543 1058 bf 0.00759013 0.0728653 0.45351 c 11 10 1555 1058 bf 11 10 1566 1058 bf 12 10 1577 1058 bf 11 10
 1589 1058 bf 12 10 1611 1058 bf 12 10 1645 1058 bf 12 10 1702 1058 bf 11 10 1714 1058 bf 11 10 1861 1058 bf 12 10 1963 1058 bf 11 10 590 1068 bf 12 10 601 1068 bf 11 10 613 1068 bf 0.0158128 0.151803 0.524225 c 11 10 624 1068 bf 0.0281863 0.253431
 0.604902 c 12 10 635 1068 bf 11 10 647 1068 bf 0.0906863 0.594608 0.78125 c 11 10 658 1068 bf 0.0588235 0.486275 0.776471 c 12 10 669 1068 bf 0.122549 0.702941 0.786029 c 11 10 681 1068 bf 0.0428922 0.365196 0.687255 c 11 10 692 1068 bf 0.122549
 0.702941 0.786029 c 12 10 703 1068 bf 0.18652 0.763235 0.706618 c 11 10 715 1068 bf 0.29326 0.785539 0.529779 c 11 10 726 1068 bf 0.122549 0.702941 0.786029 c 12 10 737 1068 bf 0.0906863 0.594608 0.78125 c 11 10 749 1068 bf 0.4 0.807843 0.352941 c
 11 10 760 1068 bf 12 10 771 1068 bf 0.18652 0.763235 0.706618 c 11 10 783 1068 bf 0.122549 0.702941 0.786029 c 12 10 794 1068 bf 0.549755 0.839706 0.244608 c 11 10 806 1068 bf 0.4 0.807843 0.352941 c 11 10 817 1068 bf 0.29326 0.785539 0.529779 c 12
 10 828 1068 bf 0.18652 0.763235 0.706618 c 11 10 840 1068 bf 11 10 851 1068 bf 12 10 862 1068 bf 0.4 0.807843 0.352941 c 11 10 874 1068 bf 0.29326 0.785539 0.529779 c 11 10 885 1068 bf 12 10 896 1068 bf 0.122549 0.702941 0.786029 c 11 10 908 1068 bf
 11 10 919 1068 bf 0.18652 0.763235 0.706618 c 12 10 930 1068 bf 11 10 942 1068 bf 0.122549 0.702941 0.786029 c 11 10 953 1068 bf 12 10 964 1068 bf 0.18652 0.763235 0.706618 c 11 10 976 1068 bf 11 10 987 1068 bf 0.122549 0.702941 0.786029 c 12 10 998
 1068 bf 11 10 1010 1068 bf 12 10 1021 1068 bf 0.29326 0.785539 0.529779 c 11 10 1033 1068 bf 0.122549 0.702941 0.786029 c 11 10 1044 1068 bf 0.18652 0.763235 0.706618 c 12 10 1055 1068 bf 0.0906863 0.594608 0.78125 c 11 10 1067 1068 bf 0.0588235
 0.486275 0.776471 c 11 10 1078 1068 bf 0.122549 0.702941 0.786029 c 12 10 1089 1068 bf 0.0906863 0.594608 0.78125 c 11 10 1101 1068 bf 0.122549 0.702941 0.786029 c 11 10 1112 1068 bf 0.0906863 0.594608 0.78125 c 12 10 1123 1068 bf 0.0588235 0.486275
 0.776471 c 11 10 1135 1068 bf 11 10 1146 1068 bf 0.122549 0.702941 0.786029 c 12 10 1157 1068 bf 0.0588235 0.486275 0.776471 c 11 10 1169 1068 bf 0.0428922 0.365196 0.687255 c 11 10 1180 1068 bf 0.0588235 0.486275 0.776471 c 12 10 1191 1068 bf
 0.0906863 0.594608 0.78125 c 11 10 1203 1068 bf 0.0588235 0.486275 0.776471 c 11 10 1214 1068 bf 0.0281863 0.253431 0.604902 c 12 10 1225 1068 bf 0.0428922 0.365196 0.687255 c 11 10 1237 1068 bf 12 10 1248 1068 bf 0.0588235 0.486275 0.776471 c 11 10
 1260 1068 bf 11 10 1271 1068 bf 12 10 1282 1068 bf 0.0281863 0.253431 0.604902 c 11 10 1294 1068 bf 11 10 1305 1068 bf 0.0428922 0.365196 0.687255 c 12 10 1316 1068 bf 0.0281863 0.253431 0.604902 c 11 10 1328 1068 bf 11 10 1339 1068 bf 12 10 1350
 1068 bf 11 10 1362 1068 bf 11 10 1373 1068 bf 0.0158128 0.151803 0.524225 c 12 10 1384 1068 bf 0.0281863 0.253431 0.604902 c 11 10 1396 1068 bf 0.0158128 0.151803 0.524225 c 11 10 1407 1068 bf 12 10 1418 1068 bf 0.00759013 0.0728653 0.45351 c 11 10
 1430 1068 bf 0.0158128 0.151803 0.524225 c 11 10 1441 1068 bf 0.0281863 0.253431 0.604902 c 12 10 1452 1068 bf 0.0158128 0.151803 0.524225 c 11 10 1464 1068 bf 0.00759013 0.0728653 0.45351 c 12 10 1475 1068 bf 0.0281863 0.253431 0.604902 c 11 10
 1487 1068 bf 0.00759013 0.0728653 0.45351 c 11 10 1498 1068 bf 12 10 1509 1068 bf 11 10 1521 1068 bf 11 10 1532 1068 bf 12 10 1543 1068 bf 11 10 1555 1068 bf 12 10 1611 1068 bf 11 10 1634 1068 bf 11 10 590 1078 bf 0.0158128 0.151803 0.524225 c 12 10
 601 1078 bf 0.00759013 0.0728653 0.45351 c 11 10 613 1078 bf 0.0158128 0.151803 0.524225 c 11 10 624 1078 bf 12 10 635 1078 bf 0.0588235 0.486275 0.776471 c 11 10 647 1078 bf 11 10 658 1078 bf 0.0906863 0.594608 0.78125 c 12 10 669 1078 bf 0.0588235
 0.486275 0.776471 c 11 10 681 1078 bf 0.122549 0.702941 0.786029 c 11 10 692 1078 bf 0.18652 0.763235 0.706618 c 12 10 703 1078 bf 11 10 715 1078 bf 0.0906863 0.594608 0.78125 c 11 10 726 1078 bf 12 10 737 1078 bf 0.29326 0.785539 0.529779 c 11 10
 749 1078 bf 11 10 760 1078 bf 0.549755 0.839706 0.244608 c 12 10 771 1078 bf 0.18652 0.763235 0.706618 c 11 10 783 1078 bf 0.549755 0.839706 0.244608 c 12 10 794 1078 bf 0.122549 0.702941 0.786029 c 11 10 806 1078 bf 0.18652 0.763235 0.706618 c 11
 10 817 1078 bf 0.549755 0.839706 0.244608 c 12 10 828 1078 bf 0.29326 0.785539 0.529779 c 11 10 840 1078 bf 0.4 0.807843 0.352941 c 11 10 851 1078 bf 0.29326 0.785539 0.529779 c 12 10 862 1078 bf 0.18652 0.763235 0.706618 c 11 10 874 1078 bf
 0.122549 0.702941 0.786029 c 11 10 885 1078 bf 0.18652 0.763235 0.706618 c 12 10 896 1078 bf 0.4 0.807843 0.352941 c 11 10 908 1078 bf 0.18652 0.763235 0.706618 c 11 10 919 1078 bf 0.122549 0.702941 0.786029 c 12 10 930 1078 bf 0.18652 0.763235
 0.706618 c 11 10 942 1078 bf 11 10 953 1078 bf 0.122549 0.702941 0.786029 c 12 10 964 1078 bf 0.29326 0.785539 0.529779 c 11 10 976 1078 bf 0.18652 0.763235 0.706618 c 11 10 987 1078 bf 0.0906863 0.594608 0.78125 c 12 10 998 1078 bf 11 10 1010 1078
 bf 0.122549 0.702941 0.786029 c 12 10 1021 1078 bf 11 10 1033 1078 bf 0.0588235 0.486275 0.776471 c 11 10 1044 1078 bf 12 10 1055 1078 bf 0.0428922 0.365196 0.687255 c 11 10 1067 1078 bf 0.0588235 0.486275 0.776471 c 11 10 1078 1078 bf 0.0906863
 0.594608 0.78125 c 12 10 1089 1078 bf 0.0281863 0.253431 0.604902 c 11 10 1101 1078 bf 0.0588235 0.486275 0.776471 c 11 10 1112 1078 bf 0.0428922 0.365196 0.687255 c 12 10 1123 1078 bf 11 10 1135 1078 bf 11 10 1146 1078 bf 0.0281863 0.253431
 0.604902 c 12 10 1157 1078 bf 0.0428922 0.365196 0.687255 c 11 10 1169 1078 bf 0.0281863 0.253431 0.604902 c 11 10 1180 1078 bf 0.0588235 0.486275 0.776471 c 12 10 1191 1078 bf 0.0281863 0.253431 0.604902 c 11 10 1203 1078 bf 0.0158128 0.151803
 0.524225 c 11 10 1214 1078 bf 0.0281863 0.253431 0.604902 c 12 10 1225 1078 bf 11 10 1237 1078 bf 0.0158128 0.151803 0.524225 c 12 10 1248 1078 bf 0.0281863 0.253431 0.604902 c 11 10 1260 1078 bf 11 10 1271 1078 bf 12 10 1282 1078 bf 0.0158128
 0.151803 0.524225 c 11 10 1294 1078 bf 11 10 1305 1078 bf 12 10 1316 1078 bf 0.0281863 0.253431 0.604902 c 11 10 1328 1078 bf 11 10 1339 1078 bf 0.0158128 0.151803 0.524225 c 12 10 1350 1078 bf 11 10 1362 1078 bf 11 10 1373 1078 bf 0.00759013
 0.0728653 0.45351 c 12 10 1384 1078 bf 0.0281863 0.253431 0.604902 c 11 10 1396 1078 bf 0.00759013 0.0728653 0.45351 c 11 10 1407 1078 bf 12 10 1418 1078 bf 11 10 1430 1078 bf 11 10 1441 1078 bf 0.0158128 0.151803 0.524225 c 12 10 1452 1078 bf
 0.00759013 0.0728653 0.45351 c 11 10 1464 1078 bf 12 10 1475 1078 bf 11 10 1487 1078 bf 11 10 1498 1078 bf 12 10 1509 1078 bf 11 10 1521 1078 bf 12 10 1543 1078 bf 12 10 1963 1078 bf 12 9 601 1088 bf 0.0158128 0.151803 0.524225 c 11 9 613 1088 bf
 0.0281863 0.253431 0.604902 c 11 9 624 1088 bf 12 9 635 1088 bf 11 9 647 1088 bf 0.0428922 0.365196 0.687255 c 11 9 658 1088 bf 0.0281863 0.253431 0.604902 c 12 9 669 1088 bf 0.0588235 0.486275 0.776471 c 11 9 681 1088 bf 11 9 692 1088 bf 0.122549
 0.702941 0.786029 c 12 9 703 1088 bf 0.0428922 0.365196 0.687255 c 11 9 715 1088 bf 0.0906863 0.594608 0.78125 c 11 9 726 1088 bf 0.18652 0.763235 0.706618 c 12 9 737 1088 bf 0.122549 0.702941 0.786029 c 11 9 749 1088 bf 11 9 760 1088 bf 0.0906863
 0.594608 0.78125 c 12 9 771 1088 bf 0.18652 0.763235 0.706618 c 11 9 783 1088 bf 0.29326 0.785539 0.529779 c 12 9 794 1088 bf 0.18652 0.763235 0.706618 c 11 9 806 1088 bf 0.122549 0.702941 0.786029 c 11 9 817 1088 bf 12 9 828 1088 bf 0.0906863
 0.594608 0.78125 c 11 9 840 1088 bf 0.122549 0.702941 0.786029 c 11 9 851 1088 bf 0.0906863 0.594608 0.78125 c 12 9 862 1088 bf 0.122549 0.702941 0.786029 c 11 9 874 1088 bf 0.29326 0.785539 0.529779 c 11 9 885 1088 bf 0.122549 0.702941 0.786029 c
 12 9 896 1088 bf 11 9 908 1088 bf 0.0906863 0.594608 0.78125 c 11 9 919 1088 bf 12 9 930 1088 bf 11 9 942 1088 bf 0.0588235 0.486275 0.776471 c 11 9 953 1088 bf 12 9 964 1088 bf 11 9 976 1088 bf 0.0906863 0.594608 0.78125 c 11 9 987 1088 bf 12 9 998
 1088 bf 0.0588235 0.486275 0.776471 c 11 9 1010 1088 bf 0.0906863 0.594608 0.78125 c 12 9 1021 1088 bf 0.0588235 0.486275 0.776471 c 11 9 1033 1088 bf 11 9 1044 1088 bf 12 9 1055 1088 bf 11 9 1067 1088 bf 11 9 1078 1088 bf 0.0428922 0.365196
 0.687255 c 12 9 1089 1088 bf 11 9 1101 1088 bf 0.0281863 0.253431 0.604902 c 11 9 1112 1088 bf 12 9 1123 1088 bf 0.0428922 0.365196 0.687255 c 11 9 1135 1088 bf 11 9 1146 1088 bf 0.0281863 0.253431 0.604902 c 12 9 1157 1088 bf 11 9 1169 1088 bf 11 9
 1180 1088 bf 0.0158128 0.151803 0.524225 c 12 9 1191 1088 bf 0.0428922 0.365196 0.687255 c 11 9 1203 1088 bf 0.0281863 0.253431 0.604902 c 11 9 1214 1088 bf 12 9 1225 1088 bf 0.0158128 0.151803 0.524225 c 11 9 1237 1088 bf 0.0281863 0.253431
 0.604902 c 12 9 1248 1088 bf 0.0158128 0.151803 0.524225 c 11 9 1260 1088 bf 0.0281863 0.253431 0.604902 c 11 9 1271 1088 bf 0.0158128 0.151803 0.524225 c 12 9 1282 1088 bf 0.00759013 0.0728653 0.45351 c 11 9 1294 1088 bf 11 9 1305 1088 bf 0.0281863
 0.253431 0.604902 c 12 9 1316 1088 bf 0.0158128 0.151803 0.524225 c 11 9 1328 1088 bf 11 9 1339 1088 bf 0.00759013 0.0728653 0.45351 c 12 9 1350 1088 bf 0.0158128 0.151803 0.524225 c 11 9 1362 1088 bf 11 9 1373 1088 bf 0.00759013 0.0728653 0.45351 c
 12 9 1384 1088 bf 11 9 1396 1088 bf 12 9 1418 1088 bf 11 9 1430 1088 bf 11 9 1441 1088 bf 12 9 1452 1088 bf 11 9 1464 1088 bf 11 9 1487 1088 bf 11 9 1521 1088 bf 11 9 1657 1088 bf 12 10 601 1097 bf 11 10 613 1097 bf 0.0158128 0.151803 0.524225 c 11
 10 624 1097 bf 12 10 635 1097 bf 0.0281863 0.253431 0.604902 c 11 10 647 1097 bf 0.0428922 0.365196 0.687255 c 11 10 658 1097 bf 12 10 669 1097 bf 11 10 681 1097 bf 11 10 692 1097 bf 0.0906863 0.594608 0.78125 c 12 10 703 1097 bf 0.122549 0.702941
 0.786029 c 11 10 715 1097 bf 0.0428922 0.365196 0.687255 c 11 10 726 1097 bf 0.122549 0.702941 0.786029 c 12 10 737 1097 bf 0.0906863 0.594608 0.78125 c 11 10 749 1097 bf 11 10 760 1097 bf 0.0588235 0.486275 0.776471 c 12 10 771 1097 bf 11 10 783
 1097 bf 0.18652 0.763235 0.706618 c 12 10 794 1097 bf 0.0906863 0.594608 0.78125 c 11 10 806 1097 bf 11 10 817 1097 bf 12 10 828 1097 bf 0.0588235 0.486275 0.776471 c 11 10 840 1097 bf 0.0906863 0.594608 0.78125 c 11 10 851 1097 bf 12 10 862 1097 bf
 11 10 874 1097 bf 0.122549 0.702941 0.786029 c 11 10 885 1097 bf 12 10 896 1097 bf 0.0588235 0.486275 0.776471 c 11 10 908 1097 bf 0.0428922 0.365196 0.687255 c 11 10 919 1097 bf 0.0588235 0.486275 0.776471 c 12 10 930 1097 bf 0.122549 0.702941
 0.786029 c 11 10 942 1097 bf 0.0588235 0.486275 0.776471 c 11 10 953 1097 bf 0.0906863 0.594608 0.78125 c 12 10 964 1097 bf 0.0588235 0.486275 0.776471 c 11 10 976 1097 bf 0.0428922 0.365196 0.687255 c 11 10 987 1097 bf 0.0588235 0.486275 0.776471 c
 12 10 998 1097 bf 0.0428922 0.365196 0.687255 c 11 10 1010 1097 bf 0.0588235 0.486275 0.776471 c 12 10 1021 1097 bf 0.0281863 0.253431 0.604902 c 11 10 1033 1097 bf 0.0588235 0.486275 0.776471 c 11 10 1044 1097 bf 0.0281863 0.253431 0.604902 c 12 10
 1055 1097 bf 0.0158128 0.151803 0.524225 c 11 10 1067 1097 bf 0.0281863 0.253431 0.604902 c 11 10 1078 1097 bf 0.0428922 0.365196 0.687255 c 12 10 1089 1097 bf 0.0281863 0.253431 0.604902 c 11 10 1101 1097 bf 0.0158128 0.151803 0.524225 c 11 10 1112
 1097 bf 0.0428922 0.365196 0.687255 c 12 10 1123 1097 bf 0.0281863 0.253431 0.604902 c 11 10 1135 1097 bf 0.0158128 0.151803 0.524225 c 11 10 1146 1097 bf 0.0281863 0.253431 0.604902 c 12 10 1157 1097 bf 0.0158128 0.151803 0.524225 c 11 10 1169 1097
 bf 0.0281863 0.253431 0.604902 c 11 10 1180 1097 bf 0.0158128 0.151803 0.524225 c 12 10 1191 1097 bf 0.00759013 0.0728653 0.45351 c 11 10 1203 1097 bf 11 10 1214 1097 bf 12 10 1225 1097 bf 11 10 1237 1097 bf 0.0158128 0.151803 0.524225 c 12 10 1248
 1097 bf 0.00759013 0.0728653 0.45351 c 11 10 1260 1097 bf 11 10 1271 1097 bf 12 10 1282 1097 bf 11 10 1294 1097 bf 11 10 1305 1097 bf 12 10 1316 1097 bf 11 10 1328 1097 bf 11 10 1339 1097 bf 12 10 1350 1097 bf 11 10 1373 1097 bf 11 10 1396 1097 bf
 11 10 1407 1097 bf 12 10 1418 1097 bf 11 10 1430 1097 bf 11 10 1441 1097 bf 12 10 1452 1097 bf 11 10 1464 1097 bf 12 10 1509 1097 bf 12 10 1543 1097 bf 11 10 1589 1097 bf 12 10 1611 1097 bf 11 10 590 1107 bf 12 10 601 1107 bf 11 10 624 1107 bf
 0.0158128 0.151803 0.524225 c 12 10 635 1107 bf 0.0281863 0.253431 0.604902 c 11 10 647 1107 bf 11 10 658 1107 bf 0.0158128 0.151803 0.524225 c 12 10 669 1107 bf 0.0281863 0.253431 0.604902 c 11 10 681 1107 bf 11 10 692 1107 bf 0.0428922 0.365196
 0.687255 c 12 10 703 1107 bf 0.0588235 0.486275 0.776471 c 11 10 715 1107 bf 0.0281863 0.253431 0.604902 c 11 10 726 1107 bf 0.0588235 0.486275 0.776471 c 12 10 737 1107 bf 11 10 749 1107 bf 0.0906863 0.594608 0.78125 c 11 10 760 1107 bf 0.0588235
 0.486275 0.776471 c 12 10 771 1107 bf 11 10 783 1107 bf 0.0906863 0.594608 0.78125 c 12 10 794 1107 bf 11 10 806 1107 bf 0.0428922 0.365196 0.687255 c 11 10 817 1107 bf 12 10 828 1107 bf 0.122549 0.702941 0.786029 c 11 10 840 1107 bf 0.0428922
 0.365196 0.687255 c 11 10 851 1107 bf 0.0588235 0.486275 0.776471 c 12 10 862 1107 bf 11 10 874 1107 bf 0.0428922 0.365196 0.687255 c 11 10 885 1107 bf 12 10 896 1107 bf 11 10 908 1107 bf 11 10 919 1107 bf 0.0588235 0.486275 0.776471 c 12 10 930
 1107 bf 0.0428922 0.365196 0.687255 c 11 10 942 1107 bf 0.0588235 0.486275 0.776471 c 11 10 953 1107 bf 0.0428922 0.365196 0.687255 c 12 10 964 1107 bf 0.0281863 0.253431 0.604902 c 11 10 976 1107 bf 0.0428922 0.365196 0.687255 c 11 10 987 1107 bf
 0.0158128 0.151803 0.524225 c 12 10 998 1107 bf 0.00759013 0.0728653 0.45351 c 11 10 1010 1107 bf 0.0428922 0.365196 0.687255 c 12 10 1021 1107 bf 0.0281863 0.253431 0.604902 c 11 10 1033 1107 bf 11 10 1044 1107 bf 0.0158128 0.151803 0.524225 c 12
 10 1055 1107 bf 11 10 1067 1107 bf 0.0281863 0.253431 0.604902 c 11 10 1078 1107 bf 12 10 1089 1107 bf 0.0158128 0.151803 0.524225 c 11 10 1101 1107 bf 11 10 1112 1107 bf 12 10 1123 1107 bf 11 10 1135 1107 bf 11 10 1146 1107 bf 0.00759013 0.0728653
 0.45351 c 12 10 1157 1107 bf 11 10 1169 1107 bf 11 10 1180 1107 bf 12 10 1191 1107 bf 11 10 1203 1107 bf 11 10 1214 1107 bf 12 10 1225 1107 bf 11 10 1237 1107 bf 12 10 1248 1107 bf 11 10 1260 1107 bf 11 10 1271 1107 bf 12 10 1282 1107 bf 11 10 1294
 1107 bf 11 10 1328 1107 bf 11 10 1339 1107 bf 12 10 1350 1107 bf 11 10 1373 1107 bf 11 10 1396 1107 bf 12 10 1452 1107 bf 11 10 1464 1107 bf 12 10 1475 1107 bf 11 10 1498 1107 bf 12 10 1509 1107 bf 12 10 533 1117 bf 12 10 567 1117 bf 11 10 579 1117
 bf 12 10 601 1117 bf 12 10 635 1117 bf 0.0158128 0.151803 0.524225 c 11 10 647 1117 bf 11 10 658 1117 bf 0.00759013 0.0728653 0.45351 c 12 10 669 1117 bf 0.0281863 0.253431 0.604902 c 11 10 681 1117 bf 0.0428922 0.365196 0.687255 c 11 10 692 1117 bf
 0.0281863 0.253431 0.604902 c 12 10 703 1117 bf 11 10 715 1117 bf 0.0428922 0.365196 0.687255 c 11 10 726 1117 bf 12 10 737 1117 bf 0.0281863 0.253431 0.604902 c 11 10 749 1117 bf 0.0588235 0.486275 0.776471 c 11 10 760 1117 bf 12 10 771 1117 bf
 0.0281863 0.253431 0.604902 c 11 10 783 1117 bf 0.0428922 0.365196 0.687255 c 12 10 794 1117 bf 11 10 806 1117 bf 0.0588235 0.486275 0.776471 c 11 10 817 1117 bf 0.0281863 0.253431 0.604902 c 12 10 828 1117 bf 11 10 840 1117 bf 0.0588235 0.486275
 0.776471 c 11 10 851 1117 bf 0.0428922 0.365196 0.687255 c 12 10 862 1117 bf 0.0588235 0.486275 0.776471 c 11 10 874 1117 bf 11 10 885 1117 bf 0.0281863 0.253431 0.604902 c 12 10 896 1117 bf 11 10 908 1117 bf 11 10 919 1117 bf 12 10 930 1117 bf 11
 10 942 1117 bf 11 10 953 1117 bf 12 10 964 1117 bf 11 10 976 1117 bf 11 10 987 1117 bf 0.0158128 0.151803 0.524225 c 12 10 998 1117 bf 0.0281863 0.253431 0.604902 c 11 10 1010 1117 bf 0.0158128 0.151803 0.524225 c 12 10 1021 1117 bf 0.00759013
 0.0728653 0.45351 c 11 10 1033 1117 bf 0.0281863 0.253431 0.604902 c 11 10 1044 1117 bf 0.0158128 0.151803 0.524225 c 12 10 1055 1117 bf 11 10 1067 1117 bf 0.00759013 0.0728653 0.45351 c 11 10 1078 1117 bf 12 10 1089 1117 bf 11 10 1101 1117 bf
 0.0158128 0.151803 0.524225 c 11 10 1112 1117 bf 0.00759013 0.0728653 0.45351 c 12 10 1123 1117 bf 0.0158128 0.151803 0.524225 c 11 10 1135 1117 bf 11 10 1146 1117 bf 12 10 1157 1117 bf 0.00759013 0.0728653 0.45351 c 11 10 1169 1117 bf 11 10 1180
 1117 bf 12 10 1191 1117 bf 11 10 1203 1117 bf 11 10 1214 1117 bf 12 10 1225 1117 bf 12 10 1248 1117 bf 11 10 1260 1117 bf 12 10 1282 1117 bf 11 10 1294 1117 bf 11 10 1373 1117 bf 11 10 1498 1117 bf 11 10 1623 1117 bf 12 10 1645 1117 bf 11 9 590 1127
 bf 11 9 613 1127 bf 12 9 635 1127 bf 11 9 647 1127 bf 11 9 658 1127 bf 0.0158128 0.151803 0.524225 c 12 9 669 1127 bf 0.00759013 0.0728653 0.45351 c 11 9 681 1127 bf 0.0281863 0.253431 0.604902 c 11 9 692 1127 bf 12 9 703 1127 bf 0.0158128 0.151803
 0.524225 c 11 9 715 1127 bf 11 9 726 1127 bf 0.00759013 0.0728653 0.45351 c 12 9 737 1127 bf 0.0281863 0.253431 0.604902 c 11 9 749 1127 bf 0.0428922 0.365196 0.687255 c 11 9 760 1127 bf 12 9 771 1127 bf 0.0158128 0.151803 0.524225 c 11 9 783 1127
 bf 0.0281863 0.253431 0.604902 c 12 9 794 1127 bf 0.0158128 0.151803 0.524225 c 11 9 806 1127 bf 11 9 817 1127 bf 0.0428922 0.365196 0.687255 c 12 9 828 1127 bf 11 9 840 1127 bf 0.0281863 0.253431 0.604902 c 11 9 851 1127 bf 12 9 862 1127 bf 11 9
 874 1127 bf 11 9 885 1127 bf 12 9 896 1127 bf 0.0158128 0.151803 0.524225 c 11 9 908 1127 bf 11 9 919 1127 bf 12 9 930 1127 bf 11 9 942 1127 bf 11 9 953 1127 bf 0.0281863 0.253431 0.604902 c 12 9 964 1127 bf 0.0158128 0.151803 0.524225 c 11 9 976
 1127 bf 11 9 987 1127 bf 12 9 998 1127 bf 11 9 1010 1127 bf 12 9 1021 1127 bf 11 9 1033 1127 bf 0.00759013 0.0728653 0.45351 c 11 9 1044 1127 bf 0.0158128 0.151803 0.524225 c 12 9 1055 1127 bf 11 9 1067 1127 bf 0.00759013 0.0728653 0.45351 c 11 9
 1078 1127 bf 0.0158128 0.151803 0.524225 c 12 9 1089 1127 bf 0.00759013 0.0728653 0.45351 c 11 9 1101 1127 bf 0.0158128 0.151803 0.524225 c 11 9 1112 1127 bf 0.00759013 0.0728653 0.45351 c 12 9 1123 1127 bf 11 9 1135 1127 bf 11 9 1146 1127 bf 12 9
 1157 1127 bf 11 9 1169 1127 bf 11 9 1180 1127 bf 12 9 1191 1127 bf 11 9 1214 1127 bf 12 9 1225 1127 bf 12 9 1248 1127 bf 11 9 1271 1127 bf 12 9 1282 1127 bf 11 9 1305 1127 bf 12 9 1316 1127 bf 11 9 1487 1127 bf 12 10 567 1136 bf 11 10 579 1136 bf 12
 10 601 1136 bf 11 10 613 1136 bf 11 10 624 1136 bf 12 10 635 1136 bf 11 10 647 1136 bf 11 10 658 1136 bf 12 10 669 1136 bf 0.0158128 0.151803 0.524225 c 11 10 681 1136 bf 0.0281863 0.253431 0.604902 c 11 10 692 1136 bf 0.00759013 0.0728653 0.45351 c
 12 10 703 1136 bf 0.0158128 0.151803 0.524225 c 11 10 715 1136 bf 11 10 726 1136 bf 0.0281863 0.253431 0.604902 c 12 10 737 1136 bf 0.0158128 0.151803 0.524225 c 11 10 749 1136 bf 0.0281863 0.253431 0.604902 c 11 10 760 1136 bf 0.0158128 0.151803
 0.524225 c 12 10 771 1136 bf 0.00759013 0.0728653 0.45351 c 11 10 783 1136 bf 12 10 794 1136 bf 0.0158128 0.151803 0.524225 c 11 10 806 1136 bf 0.0281863 0.253431 0.604902 c 11 10 817 1136 bf 0.0158128 0.151803 0.524225 c 12 10 828 1136 bf 11 10 840
 1136 bf 0.0281863 0.253431 0.604902 c 11 10 851 1136 bf 0.00759013 0.0728653 0.45351 c 12 10 862 1136 bf 0.0281863 0.253431 0.604902 c 11 10 874 1136 bf 0.0158128 0.151803 0.524225 c 11 10 885 1136 bf 0.00759013 0.0728653 0.45351 c 12 10 896 1136 bf
 11 10 908 1136 bf 11 10 919 1136 bf 0.0158128 0.151803 0.524225 c 12 10 930 1136 bf 11 10 942 1136 bf 0.00759013 0.0728653 0.45351 c 11 10 953 1136 bf 0.0158128 0.151803 0.524225 c 12 10 964 1136 bf 11 10 976 1136 bf 0.00759013 0.0728653 0.45351 c
 11 10 987 1136 bf 12 10 998 1136 bf 0.0158128 0.151803 0.524225 c 11 10 1010 1136 bf 0.00759013 0.0728653 0.45351 c 12 10 1021 1136 bf 11 10 1033 1136 bf 11 10 1067 1136 bf 12 10 1089 1136 bf 11 10 1101 1136 bf 11 10 1112 1136 bf 12 10 1123 1136 bf
 11 10 1135 1136 bf 11 10 1146 1136 bf 11 10 1180 1136 bf 11 10 1237 1136 bf 11 10 1305 1136 bf 12 10 1316 1136 bf 11 10 1362 1136 bf 11 10 499 1146 bf 11 10 556 1146 bf 12 10 567 1146 bf 11 10 613 1146 bf 12 10 635 1146 bf 0.0158128 0.151803
 0.524225 c 11 10 647 1146 bf 0.00759013 0.0728653 0.45351 c 11 10 658 1146 bf 12 10 669 1146 bf 11 10 681 1146 bf 11 10 692 1146 bf 0.0158128 0.151803 0.524225 c 12 10 703 1146 bf 11 10 715 1146 bf 11 10 726 1146 bf 12 10 737 1146 bf 0.00759013
 0.0728653 0.45351 c 11 10 749 1146 bf 0.0158128 0.151803 0.524225 c 11 10 760 1146 bf 0.00759013 0.0728653 0.45351 c 12 10 771 1146 bf 11 10 783 1146 bf 12 10 794 1146 bf 11 10 806 1146 bf 0.0158128 0.151803 0.524225 c 11 10 817 1146 bf 12 10 828
 1146 bf 0.00759013 0.0728653 0.45351 c 11 10 840 1146 bf 11 10 851 1146 bf 12 10 862 1146 bf 11 10 874 1146 bf 11 10 885 1146 bf 12 10 896 1146 bf 11 10 908 1146 bf 11 10 919 1146 bf 0.0158128 0.151803 0.524225 c 12 10 930 1146 bf 0.00759013
 0.0728653 0.45351 c 11 10 942 1146 bf 11 10 953 1146 bf 12 10 964 1146 bf 11 10 976 1146 bf 11 10 987 1146 bf 12 10 998 1146 bf 11 10 1010 1146 bf 12 10 1021 1146 bf 11 10 1033 1146 bf 11 10 1044 1146 bf 12 10 1055 1146 bf 11 10 1067 1146 bf 12 10
 1089 1146 bf 11 10 1101 1146 bf 11 10 1135 1146 bf 11 10 1146 1146 bf 11 10 1203 1146 bf 11 10 1214 1146 bf 12 10 1248 1146 bf 11 10 1362 1146 bf 11 10 1373 1146 bf 12 10 1418 1146 bf 11 10 522 1156 bf 12 10 567 1156 bf 11 10 624 1156 bf 12 10 635
 1156 bf 11 10 647 1156 bf 11 10 658 1156 bf 12 10 669 1156 bf 11 10 681 1156 bf 11 10 692 1156 bf 12 10 703 1156 bf 11 10 726 1156 bf 12 10 737 1156 bf 11 10 749 1156 bf 0.0158128 0.151803 0.524225 c 11 10 760 1156 bf 0.00759013 0.0728653 0.45351 c
 12 10 771 1156 bf 11 10 783 1156 bf 12 10 794 1156 bf 11 10 806 1156 bf 11 10 817 1156 bf 12 10 828 1156 bf 11 10 840 1156 bf 11 10 851 1156 bf 12 10 862 1156 bf 11 10 874 1156 bf 0.0158128 0.151803 0.524225 c 11 10 885 1156 bf 0.00759013 0.0728653
 0.45351 c 12 10 896 1156 bf 11 10 908 1156 bf 11 10 919 1156 bf 12 10 930 1156 bf 11 10 942 1156 bf 11 10 953 1156 bf 12 10 964 1156 bf 11 10 987 1156 bf 12 10 998 1156 bf 11 10 1010 1156 bf 11 10 1033 1156 bf 11 10 1044 1156 bf 11 10 1067 1156 bf
 11 10 1078 1156 bf 11 10 1146 1156 bf 12 10 1157 1156 bf 11 10 1180 1156 bf 12 10 1191 1156 bf 11 10 1203 1156 bf 11 10 1237 1156 bf 11 10 1328 1156 bf 11 9 499 1166 bf 11 9 556 1166 bf 12 9 567 1166 bf 12 9 601 1166 bf 11 9 613 1166 bf 12 9 635
 1166 bf 11 9 647 1166 bf 11 9 658 1166 bf 12 9 669 1166 bf 11 9 681 1166 bf 11 9 692 1166 bf 11 9 715 1166 bf 11 9 726 1166 bf 11 9 749 1166 bf 11 9 760 1166 bf 12 9 771 1166 bf 11 9 783 1166 bf 12 9 794 1166 bf 11 9 817 1166 bf 12 9 828 1166 bf 11
 9 840 1166 bf 11 9 851 1166 bf 12 9 862 1166 bf 11 9 885 1166 bf 12 9 896 1166 bf 11 9 908 1166 bf 12 9 930 1166 bf 11 9 942 1166 bf 12 9 964 1166 bf 11 9 976 1166 bf 11 9 1010 1166 bf 12 9 1021 1166 bf 11 9 1044 1166 bf 11 9 1180 1166 bf 12 9 1225
 1166 bf 12 9 1248 1166 bf 11 10 556 1175 bf 12 10 669 1175 bf 11 10 692 1175 bf 11 10 726 1175 bf 12 10 737 1175 bf 11 10 760 1175 bf 12 10 771 1175 bf 11 10 783 1175 bf 0.0158128 0.151803 0.524225 c 12 10 794 1175 bf 0.00759013 0.0728653 0.45351 c
 11 10 806 1175 bf 11 10 817 1175 bf 11 10 851 1175 bf 12 10 862 1175 bf 11 10 874 1175 bf 11 10 908 1175 bf 11 10 919 1175 bf 12 10 930 1175 bf 12 10 964 1175 bf 11 10 1033 1175 bf 12 10 1055 1175 bf 11 10 1067 1175 bf 12 10 1350 1175 bf 11 10 522
 1185 bf 12 10 533 1185 bf 11 10 613 1185 bf 12 10 669 1185 bf 11 10 681 1185 bf 11 10 692 1185 bf 12 10 703 1185 bf 11 10 715 1185 bf 12 10 737 1185 bf 11 10 760 1185 bf 11 10 783 1185 bf 12 10 862 1185 bf 11 10 908 1185 bf 12 10 930 1185 bf 11 10
 942 1185 bf 11 10 953 1185 bf 12 10 1123 1185 bf 12 10 1350 1185 bf 12 9 510 1195 bf 12 9 635 1195 bf 11 9 681 1195 bf 12 9 737 1195 bf 11 9 760 1195 bf 12 9 771 1195 bf 11 9 783 1195 bf 12 9 794 1195 bf 11 9 806 1195 bf 12 9 828 1195 bf 11 9 874
 1195 bf 12 9 896 1195 bf 11 9 919 1195 bf 12 9 930 1195 bf 11 9 1033 1195 bf 11 9 1078 1195 bf 12 9 1089 1195 bf 11 9 1101 1195 bf 12 10 510 1204 bf 11 10 658 1204 bf 11 10 692 1204 bf 11 10 726 1204 bf 11 10 806 1204 bf 11 10 840 1204 bf 11 10 976
 1204 bf 11 10 987 1204 bf 12 10 1021 1204 bf 11 10 1112 1204 bf 11 10 1146 1204 bf 11 10 1237 1204 bf 11 10 545 1214 bf 11 10 715 1214 bf 11 10 783 1214 bf 12 10 862 1214 bf 11 10 919 1214 bf 11 10 545 1224 bf 11 10 590 1224 bf 11 10 692 1224 bf 11
 10 760 1224 bf 12 10 771 1224 bf 11 10 1339 1224 bf 11 9 681 1234 bf 11 9 760 1234 bf 12 10 862 1243 bf 12 10 896 1243 bf 11 10 624 1253 bf 11 10 647 1253 bf 12 10 964 1253 bf 12 10 998 1253 bf 11 10 817 1263 bf 11 10 760 1282 bf 12 10 930 1282 bf
 132 57 2580 144 bf 0.0158128 0.151803 0.524225 c 132 57 2580 201 bf 0.0281863 0.253431 0.604902 c 132 58 2580 258 bf 0.0428922 0.365196 0.687255 c 132 57 2580 316 bf 0.0588235 0.486275 0.776471 c 132 58 2580 373 bf 0.0906863 0.594608 0.78125 c 132
 57 2580 431 bf 0.122549 0.702941 0.786029 c 132 58 2580 488 bf 0.18652 0.763235 0.706618 c 132 57 2580 546 bf 0.29326 0.785539 0.529779 c 132 57 2580 603 bf 0.4 0.807843 0.352941 c 132 58 2580 660 bf 0.549755 0.839706 0.244608 c 132 57 2580 718 bf
 0.68799 0.869118 0.144608 c 132 58 2580 775 bf 0.777451 0.791422 0.0796569 c 132 57 2580 833 bf 0.796569 0.585907 0.0653186 c 132 58 2580 890 bf 0.815686 0.380392 0.0509804 c 132 57 2580 948 bf 0.802451 0.261275 0.0436275 c 132 57 2580 1005 bf
 0.788113 0.13223 0.0356618 c 132 58 2580 1062 bf 0.714951 0.0509804 0.0269608 c 132 57 2580 1120 bf 0.573162 0.0254902 0.017402 c 132 58 2580 1177 bf 0.442279 0.00196078 0.00857843 c 132 57 2580 1235 bf black 2712 144 m 1148 Y s 2641 144 m 71 X s
 2641 354 m 71 X s 2641 565 m 71 X s 2641 776 m 71 X s 2641 986 m 71 X s 2641 1197 m 71 X s 2641 1197 m 71 X s
 gsave  2948 1436 0 0 C 2726.49 127.019 t 0 r /Helvetica findfont 47.263 sf 0 0 m (0) show NC gr 
 gsave  2948 1436 0 0 C 2726.49 336.749 t 0 r /Helvetica findfont 47.263 sf 0 0 m (20) show NC gr 
 gsave  2948 1436 0 0 C 2726.49 547.956 t 0 r /Helvetica findfont 47.263 sf 0 0 m (40) show NC gr 
 gsave  2948 1436 0 0 C 2726.49 759.162 t 0 r /Helvetica findfont 47.263 sf 0 0 m (60) show NC gr 
 gsave  2948 1436 0 0 C 2726.49 968.892 t 0 r /Helvetica findfont 47.263 sf 0 0 m (80) show NC gr 
 gsave  2948 1436 0 0 C 2726.49 1180.1 t 0 r /Helvetica findfont 47.263 sf 0 0 m (100) show NC gr  1 1 1 c black 1 1 1 c black
 gsave  2948 1436 0 0 C 1248.04 1367.67 t 0 r /Helvetica findfont 67.9406 sf 0 0 m (St 19 | XY Calo) show NC gr  295 144 m 2270 X s 295 177 m -33 Y s 370 160 m -16 Y s 446 160 m -16 Y s 522 160 m -16 Y s 597 160 m -16 Y s 673 177 m -33 Y s 749 160 m
 -16 Y s 824 160 m -16 Y s 900 160 m -16 Y s 976 160 m -16 Y s 1051 177 m -33 Y s 1127 160 m -16 Y s 1203 160 m -16 Y s 1278 160 m -16 Y s 1354 160 m -16 Y s 1430 177 m -33 Y s 1505 160 m -16 Y s 1581 160 m -16 Y s 1657 160 m -16 Y s 1732 160 m -16 Y
 s 1808 177 m -33 Y s 1884 160 m -16 Y s 1959 160 m -16 Y s 2035 160 m -16 Y s 2111 160 m -16 Y s 2186 177 m -33 Y s 2262 160 m -16 Y s 2338 160 m -16 Y s 2413 160 m -16 Y s 2489 160 m -16 Y s 2565 177 m -33 Y s
 gsave  2948 1436 0 0 C 264.378 91.5721 t 0 r /Helvetica findfont 53.1709 sf 0 0 m (150) show NC gr 
 gsave  2948 1436 0 0 C 234.838 91.5721 t 0 r /Symbol findfont 53.1709 sf 0 0 m (-) show NC gr 
 gsave  2948 1436 0 0 C 642.482 91.5721 t 0 r /Helvetica findfont 53.1709 sf 0 0 m (100) show NC gr 
 gsave  2948 1436 0 0 C 612.942 91.5721 t 0 r /Symbol findfont 53.1709 sf 0 0 m (-) show NC gr 
 gsave  2948 1436 0 0 C 1035.36 91.5721 t 0 r /Helvetica findfont 53.1709 sf 0 0 m (50) show NC gr 
 gsave  2948 1436 0 0 C 1005.82 91.5721 t 0 r /Symbol findfont 53.1709 sf 0 0 m (-) show NC gr 
 gsave  2948 1436 0 0 C 1414.94 91.5721 t 0 r /Helvetica findfont 53.1709 sf 0 0 m (0) show NC gr 
 gsave  2948 1436 0 0 C 1778.27 91.5721 t 0 r /Helvetica findfont 53.1709 sf 0 0 m (50) show NC gr 
 gsave  2948 1436 0 0 C 2141.61 91.5721 t 0 r /Helvetica findfont 53.1709 sf 0 0 m (100) show NC gr 
 gsave  2948 1436 0 0 C 2519.71 91.5721 t 0 r /Helvetica findfont 53.1709 sf 0 0 m (150) show NC gr 
 gsave  2948 1436 0 0 C 2008.68 33.9703 t 0 r /Helvetica findfont 47.263 sf 0 0 m (Calo Decay Position X [mm) show NC gr  295 144 m 1148 Y s 366 241 m -71 X s 330 281 m -35 X s 330 322 m -35 X s 330 363 m -35 X s 366 403 m -71 X s 330 444 m -35 X s
 330 484 m -35 X s 330 525 m -35 X s 366 565 m -71 X s 330 606 m -35 X s 330 646 m -35 X s 330 687 m -35 X s 366 728 m -71 X s 330 768 m -35 X s 330 809 m -35 X s 330 849 m -35 X s 366 890 m -71 X s 330 930 m -35 X s 330 971 m -35 X s 330 1011 m -35
 X s 366 1052 m -71 X s 330 1093 m -35 X s 330 1133 m -35 X s 330 1174 m -35 X s 366 1214 m -71 X s 366 241 m -71 X s 330 200 m -35 X s 330 160 m -35 X s 366 1214 m -71 X s 330 1255 m -35 X s
 gsave  2948 1436 0 0 C 221.545 223.022 t 0 r /Helvetica findfont 53.1709 sf 0 0 m (60) show NC gr 
 gsave  2948 1436 0 0 C 192.006 223.022 t 0 r /Symbol findfont 53.1709 sf 0 0 m (-) show NC gr 
 gsave  2948 1436 0 0 C 221.545 384.012 t 0 r /Helvetica findfont 53.1709 sf 0 0 m (40) show NC gr 
 gsave  2948 1436 0 0 C 192.006 384.012 t 0 r /Symbol findfont 53.1709 sf 0 0 m (-) show NC gr 
 gsave  2948 1436 0 0 C 221.545 546.479 t 0 r /Helvetica findfont 53.1709 sf 0 0 m (20) show NC gr 
 gsave  2948 1436 0 0 C 192.006 546.479 t 0 r /Symbol findfont 53.1709 sf 0 0 m (-) show NC gr 
 gsave  2948 1436 0 0 C 251.085 708.945 t 0 r /Helvetica findfont 53.1709 sf 0 0 m (0) show NC gr 
 gsave  2948 1436 0 0 C 221.545 871.412 t 0 r /Helvetica findfont 53.1709 sf 0 0 m (20) show NC gr 
 gsave  2948 1436 0 0 C 221.545 1033.88 t 0 r /Helvetica findfont 53.1709 sf 0 0 m (40) show NC gr 
 gsave  2948 1436 0 0 C 221.545 1196.35 t 0 r /Helvetica findfont 53.1709 sf 0 0 m (60) show NC gr 
 gsave  2948 1436 0 0 C 109.296 723.715 t 90 r /Helvetica findfont 47.263 sf 0 0 m (Calo Decay Position Y [mm]) show NC gr  1 1 1 c black
 gsave  2948 1436 0 0 C 1248.04 1367.67 t 0 r /Helvetica findfont 67.9406 sf 0 0 m (St 19 | XY Calo) show NC gr  gr showpage
 gr 
%%Trailer
%%Pages:  1
 gr  gr  gr 
%%EOF
